(dp0
S'run_dectreeclas'
p1
(lp2
(lp3
cnumpy.core.multiarray
scalar
p4
(cnumpy
dtype
p5
(S'f8'
p6
I0
I1
tp7
Rp8
(I3
S'<'
p9
NNNI-1
I-1
I0
tp10
bS'=\n\xd7\xa3p=\xea?'
p11
tp12
Rp13
ag4
(g8
S'\xdb\xb6m\xdb\xb6m\xeb?'
p14
tp15
Rp16
ag4
(g8
S'\xab\xaa\xaa\xaa\xaa\xaa\xea?'
p17
tp18
Rp19
ag4
(g8
S'\x00\x00\x00\x00\x00\x00\xe8?'
p20
tp21
Rp22
ag4
(g8
S'\x00\x00\x00\x00\x00\x00\xea?'
p23
tp24
Rp25
ag4
(g8
S'\x00\x00\x00\x00\x00\x00\xe8?'
p26
tp27
Rp28
ag4
(g8
S'\x00\x00\x00\x00\x00\x00\xea?'
p29
tp30
Rp31
ag4
(g8
S'\xda\xa8\xefl\xd4w\xe6?'
p32
tp33
Rp34
ag4
(g8
S'\xea;\x1b\xf5\x9d\x8d\xea?'
p35
tp36
Rp37
ag4
(g8
S'g\xa3\xbe\xb3Q\xdf\xe9?'
p38
tp39
Rp40
ag4
(g8
S'\x14\xaeG\xe1z\x14\xee?'
p41
tp42
Rp43
ag4
(g8
S'^N\xc1\xcb)x\xe9?'
p44
tp45
Rp46
ag4
(g8
S'TUUUUU\xe7?'
p47
tp48
Rp49
ag4
(g8
S'TUUUUU\xe7?'
p50
tp51
Rp52
ag4
(g8
S'\xab\xaa\xaa\xaa\xaa\xaa\xea?'
p53
tp54
Rp55
ag4
(g8
S'\x00\x00\x00\x00\x00\x00\xe6?'
p56
tp57
Rp58
ag4
(g8
S'\x00\x00\x00\x00\x00\x00\xea?'
p59
tp60
Rp61
ag4
(g8
S'\xe5\nbr\x051\xe9?'
p62
tp63
Rp64
ag4
(g8
S'\xea;\x1b\xf5\x9d\x8d\xea?'
p65
tp66
Rp67
ag4
(g8
S'\xea;\x1b\xf5\x9d\x8d\xea?'
p68
tp69
Rp70
ag4
(g8
S'\xf6(\\\x8f\xc2\xf5\xe8?'
p71
tp72
Rp73
ag4
(g8
S'^N\xc1\xcb)x\xe9?'
p74
tp75
Rp76
ag4
(g8
S'\x00\x00\x00\x00\x00\x00\xea?'
p77
tp78
Rp79
ag4
(g8
S'\xaa\xaa\xaa\xaa\xaa\xaa\xe8?'
p80
tp81
Rp82
ag4
(g8
S'\x00\x00\x00\x00\x00\x00\xea?'
p83
tp84
Rp85
ag4
(g8
S'\xaa\xaa\xaa\xaa\xaa\xaa\xe8?'
p86
tp87
Rp88
ag4
(g8
S'\xab\xaa\xaa\xaa\xaa\xaa\xea?'
p89
tp90
Rp91
ag4
(g8
S']AL\xae &\xe7?'
p92
tp93
Rp94
ag4
(g8
S'\xf5\x9d\x8d\xfa\xceF\xed?'
p95
tp96
Rp97
ag4
(g8
S'g\xa3\xbe\xb3Q\xdf\xe9?'
p98
tp99
Rp100
ag4
(g8
S'\xaeG\xe1z\x14\xae\xe7?'
p101
tp102
Rp103
ag4
(g8
S'\xdb\xb6m\xdb\xb6m\xeb?'
p104
tp105
Rp106
ag4
(g8
S'\x00\x00\x00\x00\x00\x00\xea?'
p107
tp108
Rp109
ag4
(g8
S'\x00\x00\x00\x00\x00\x00\xea?'
p110
tp111
Rp112
ag4
(g8
S'UUUUUU\xe9?'
p113
tp114
Rp115
ag4
(g8
S'\xab\xaa\xaa\xaa\xaa\xaa\xea?'
p116
tp117
Rp118
ag4
(g8
S'\xab\xaa\xaa\xaa\xaa\xaa\xea?'
p119
tp120
Rp121
ag4
(g8
S'g\xa3\xbe\xb3Q\xdf\xe9?'
p122
tp123
Rp124
ag4
(g8
S'ar\x051\xb9\x82\xe8?'
p125
tp126
Rp127
ag4
(g8
S'\xda\xa8\xefl\xd4w\xe6?'
p128
tp129
Rp130
ag4
(g8
S'=\n\xd7\xa3p=\xea?'
p131
tp132
Rp133
ag4
(g8
S'\x88\xc6\xfa\xd0X\x1f\xea?'
p134
tp135
Rp136
ag4
(g8
S'\xab\xaa\xaa\xaa\xaa\xaa\xea?'
p137
tp138
Rp139
ag4
(g8
S'\xab\xaa\xaa\xaa\xaa\xaa\xea?'
p140
tp141
Rp142
ag4
(g8
S'UUUUUU\xe9?'
p143
tp144
Rp145
ag4
(g8
S'\x00\x00\x00\x00\x00\x00\xe8?'
p146
tp147
Rp148
ag4
(g8
S'\xab\xaa\xaa\xaa\xaa\xaa\xec?'
p149
tp150
Rp151
ag4
(g8
S']AL\xae &\xe7?'
p152
tp153
Rp154
ag4
(g8
S'ar\x051\xb9\x82\xe8?'
p155
tp156
Rp157
ag4
(g8
S'l\xd4w6\xea;\xeb?'
p158
tp159
Rp160
ag4
(g8
S'=\n\xd7\xa3p=\xea?'
p161
tp162
Rp163
ag4
(g8
S'\xb2>4\xd6\x87\xc6\xea?'
p164
tp165
Rp166
ag4
(g8
S'\x00\x00\x00\x00\x00\x00\xea?'
p167
tp168
Rp169
ag4
(g8
S'TUUUUU\xe7?'
p170
tp171
Rp172
ag4
(g8
S'UUUUUU\xe9?'
p173
tp174
Rp175
ag4
(g8
S'\x00\x00\x00\x00\x00\x00\xe6?'
p176
tp177
Rp178
ag4
(g8
S'UUUUUU\xeb?'
p179
tp180
Rp181
ag4
(g8
S'l\xd4w6\xea;\xeb?'
p182
tp183
Rp184
ag4
(g8
S'\xdf\xd9\xa8\xefl\xd4\xe7?'
p185
tp186
Rp187
ag4
(g8
S'\xea;\x1b\xf5\x9d\x8d\xea?'
p188
tp189
Rp190
ag4
(g8
S'\n\xd7\xa3p=\n\xe7?'
p191
tp192
Rp193
ag4
(g8
S'/\xa7\xe0\xe5\x14\xbc\xec?'
p194
tp195
Rp196
ag4
(g8
S'TUUUUU\xe7?'
p197
tp198
Rp199
ag4
(g8
S'\x00\x00\x00\x00\x00\x00\xea?'
p200
tp201
Rp202
ag4
(g8
S'UUUUUU\xe9?'
p203
tp204
Rp205
ag4
(g8
S'\xab\xaa\xaa\xaa\xaa\xaa\xea?'
p206
tp207
Rp208
ag4
(g8
S'\xaa\xaa\xaa\xaa\xaa\xaa\xe8?'
p209
tp210
Rp211
ag4
(g8
S'g\xa3\xbe\xb3Q\xdf\xe9?'
p212
tp213
Rp214
ag4
(g8
S'g\xa3\xbe\xb3Q\xdf\xe9?'
p215
tp216
Rp217
ag4
(g8
S'\xdf\xd9\xa8\xefl\xd4\xe7?'
p218
tp219
Rp220
ag4
(g8
S'R\xb8\x1e\x85\xebQ\xe8?'
p221
tp222
Rp223
ag4
(g8
S'\x88\xc6\xfa\xd0X\x1f\xea?'
p224
tp225
Rp226
ag4
(g8
S'\x00\x00\x00\x00\x00\x00\xea?'
p227
tp228
Rp229
ag4
(g8
S'UUUUUU\xe9?'
p230
tp231
Rp232
ag4
(g8
S'UUUUUU\xe9?'
p233
tp234
Rp235
ag4
(g8
S'\xaa\xaa\xaa\xaa\xaa\xaa\xe8?'
p236
tp237
Rp238
ag4
(g8
S'UUUUUU\xe9?'
p239
tp240
Rp241
ag4
(g8
S'\xe5\nbr\x051\xe9?'
p242
tp243
Rp244
ag4
(g8
S'l\xd4w6\xea;\xeb?'
p245
tp246
Rp247
ag4
(g8
S'\xe5\nbr\x051\xe9?'
p248
tp249
Rp250
ag4
(g8
S'\xf6(\\\x8f\xc2\xf5\xe8?'
p251
tp252
Rp253
ag4
(g8
S'\xdb\xb6m\xdb\xb6m\xeb?'
p254
tp255
Rp256
ag4
(g8
S'\x00\x00\x00\x00\x00\x00\xea?'
p257
tp258
Rp259
ag4
(g8
S'\x00\x00\x00\x00\x00\x00\xe8?'
p260
tp261
Rp262
ag4
(g8
S'\x00\x00\x00\x00\x00\x00\xe8?'
p263
tp264
Rp265
ag4
(g8
S'\xaa\xaa\xaa\xaa\xaa\xaa\xe8?'
p266
tp267
Rp268
ag4
(g8
S'\x00\x00\x00\x00\x00\x00\xe8?'
p269
tp270
Rp271
ag4
(g8
S'ar\x051\xb9\x82\xe8?'
p272
tp273
Rp274
ag4
(g8
S'\xea;\x1b\xf5\x9d\x8d\xea?'
p275
tp276
Rp277
ag4
(g8
S'l\xd4w6\xea;\xeb?'
p278
tp279
Rp280
ag4
(g8
S'\xf6(\\\x8f\xc2\xf5\xe8?'
p281
tp282
Rp283
ag4
(g8
S'^N\xc1\xcb)x\xe9?'
p284
tp285
Rp286
ag4
(g8
S'\xab\xaa\xaa\xaa\xaa\xaa\xea?'
p287
tp288
Rp289
ag4
(g8
S'\xab\xaa\xaa\xaa\xaa\xaa\xea?'
p290
tp291
Rp292
ag4
(g8
S'\xab\xaa\xaa\xaa\xaa\xaa\xe6?'
p293
tp294
Rp295
ag4
(g8
S'\x00\x00\x00\x00\x00\x00\xec?'
p296
tp297
Rp298
ag4
(g8
S'\xaa\xaa\xaa\xaa\xaa\xaa\xe8?'
p299
tp300
Rp301
ag4
(g8
S'l\xd4w6\xea;\xeb?'
p302
tp303
Rp304
ag4
(g8
S'\xea;\x1b\xf5\x9d\x8d\xea?'
p305
tp306
Rp307
ag4
(g8
S'\xdf\xd9\xa8\xefl\xd4\xe7?'
p308
tp309
Rp310
aa(lp311
ccollections
OrderedDict
p312
((lp313
(lp314
S'max_features'
p315
aF0.9926179780543045
aa(lp316
S'min_samples_split'
p317
aI7
aa(lp318
S'min_impurity_split'
p319
aF0.12088995980580641
aa(lp320
S'max_depth'
p321
aI12
aa(lp322
S'min_samples_leaf'
p323
aI23
aatp324
Rp325
ag312
((lp326
(lp327
g315
aF0.42789540982689017
aa(lp328
g317
aI2
aa(lp329
g319
aF0.22169166627303505
aa(lp330
g321
aI9
aa(lp331
g323
aI25
aatp332
Rp333
ag312
((lp334
(lp335
g315
aF0.7140798519983268
aa(lp336
g317
aI6
aa(lp337
g319
aF0.4221069999614152
aa(lp338
g321
aI10
aa(lp339
g323
aI6
aatp340
Rp341
ag312
((lp342
(lp343
g315
aF0.42789540982689017
aa(lp344
g317
aI2
aa(lp345
g319
aF0.22169166627303505
aa(lp346
g321
aI9
aa(lp347
g323
aI25
aatp348
Rp349
ag312
((lp350
(lp351
g315
aF0.9926179780543045
aa(lp352
g317
aI12
aa(lp353
g319
aF0.12088995980580641
aa(lp354
g321
aI5
aa(lp355
g323
aI5
aatp356
Rp357
ag312
((lp358
(lp359
g315
aF0.42789540982689017
aa(lp360
g317
aI11
aa(lp361
g319
aF0.22169166627303505
aa(lp362
g321
aI12
aa(lp363
g323
aI2
aatp364
Rp365
ag312
((lp366
(lp367
g315
aF0.7140798519983268
aa(lp368
g317
aI18
aa(lp369
g319
aF0.4221069999614152
aa(lp370
g321
aI5
aa(lp371
g323
aI26
aatp372
Rp373
ag312
((lp374
(lp375
g315
aF0.42789540982689017
aa(lp376
g317
aI2
aa(lp377
g319
aF0.22169166627303505
aa(lp378
g321
aI9
aa(lp379
g323
aI25
aatp380
Rp381
ag312
((lp382
(lp383
g315
aF0.42789540982689017
aa(lp384
g317
aI11
aa(lp385
g319
aF0.22169166627303505
aa(lp386
g321
aI12
aa(lp387
g323
aI2
aatp388
Rp389
ag312
((lp390
(lp391
g315
aF0.42789540982689017
aa(lp392
g317
aI2
aa(lp393
g319
aF0.22169166627303505
aa(lp394
g321
aI9
aa(lp395
g323
aI25
aatp396
Rp397
ag312
((lp398
(lp399
g315
aF0.7140798519983268
aa(lp400
g317
aI6
aa(lp401
g319
aF0.4221069999614152
aa(lp402
g321
aI10
aa(lp403
g323
aI6
aatp404
Rp405
ag312
((lp406
(lp407
g315
aF0.42789540982689017
aa(lp408
g317
aI11
aa(lp409
g319
aF0.22169166627303505
aa(lp410
g321
aI12
aa(lp411
g323
aI2
aatp412
Rp413
ag312
((lp414
(lp415
g315
aF0.42789540982689017
aa(lp416
g317
aI2
aa(lp417
g319
aF0.22169166627303505
aa(lp418
g321
aI9
aa(lp419
g323
aI25
aatp420
Rp421
ag312
((lp422
(lp423
g315
aF0.42789540982689017
aa(lp424
g317
aI17
aa(lp425
g319
aF0.22169166627303505
aa(lp426
g321
aI11
aa(lp427
g323
aI12
aatp428
Rp429
ag312
((lp430
(lp431
g315
aF0.7140798519983268
aa(lp432
g317
aI6
aa(lp433
g319
aF0.4221069999614152
aa(lp434
g321
aI10
aa(lp435
g323
aI6
aatp436
Rp437
ag312
((lp438
(lp439
g315
aF0.7140798519983268
aa(lp440
g317
aI6
aa(lp441
g319
aF0.4221069999614152
aa(lp442
g321
aI10
aa(lp443
g323
aI6
aatp444
Rp445
ag312
((lp446
(lp447
g315
aF0.42789540982689017
aa(lp448
g317
aI18
aa(lp449
g319
aF0.22169166627303505
aa(lp450
g321
aI12
aa(lp451
g323
aI10
aatp452
Rp453
ag312
((lp454
(lp455
g315
aF0.7140798519983268
aa(lp456
g317
aI19
aa(lp457
g319
aF0.4221069999614152
aa(lp458
g321
aI17
aa(lp459
g323
aI34
aatp460
Rp461
ag312
((lp462
(lp463
g315
aF0.42789540982689017
aa(lp464
g317
aI2
aa(lp465
g319
aF0.22169166627303505
aa(lp466
g321
aI9
aa(lp467
g323
aI25
aatp468
Rp469
ag312
((lp470
(lp471
g315
aF0.7140798519983268
aa(lp472
g317
aI18
aa(lp473
g319
aF0.4221069999614152
aa(lp474
g321
aI5
aa(lp475
g323
aI26
aatp476
Rp477
ag312
((lp478
(lp479
g315
aF0.9926179780543045
aa(lp480
g317
aI18
aa(lp481
g319
aF0.12088995980580641
aa(lp482
g321
aI14
aa(lp483
g323
aI25
aatp484
Rp485
ag312
((lp486
(lp487
g315
aF0.42789540982689017
aa(lp488
g317
aI11
aa(lp489
g319
aF0.22169166627303505
aa(lp490
g321
aI12
aa(lp491
g323
aI2
aatp492
Rp493
ag312
((lp494
(lp495
g315
aF0.7140798519983268
aa(lp496
g317
aI12
aa(lp497
g319
aF0.4221069999614152
aa(lp498
g321
aI13
aa(lp499
g323
aI31
aatp500
Rp501
ag312
((lp502
(lp503
g315
aF0.42789540982689017
aa(lp504
g317
aI18
aa(lp505
g319
aF0.22169166627303505
aa(lp506
g321
aI12
aa(lp507
g323
aI10
aatp508
Rp509
ag312
((lp510
(lp511
g315
aF0.7140798519983268
aa(lp512
g317
aI18
aa(lp513
g319
aF0.4221069999614152
aa(lp514
g321
aI5
aa(lp515
g323
aI26
aatp516
Rp517
ag312
((lp518
(lp519
g315
aF0.42789540982689017
aa(lp520
g317
aI17
aa(lp521
g319
aF0.22169166627303505
aa(lp522
g321
aI11
aa(lp523
g323
aI12
aatp524
Rp525
ag312
((lp526
(lp527
g315
aF0.42789540982689017
aa(lp528
g317
aI18
aa(lp529
g319
aF0.22169166627303505
aa(lp530
g321
aI12
aa(lp531
g323
aI10
aatp532
Rp533
ag312
((lp534
(lp535
g315
aF0.42789540982689017
aa(lp536
g317
aI14
aa(lp537
g319
aF0.22169166627303505
aa(lp538
g321
aI9
aa(lp539
g323
aI10
aatp540
Rp541
ag312
((lp542
(lp543
g315
aF0.9926179780543045
aa(lp544
g317
aI12
aa(lp545
g319
aF0.12088995980580641
aa(lp546
g321
aI5
aa(lp547
g323
aI5
aatp548
Rp549
ag312
((lp550
(lp551
g315
aF0.9926179780543045
aa(lp552
g317
aI4
aa(lp553
g319
aF0.12088995980580641
aa(lp554
g321
aI15
aa(lp555
g323
aI9
aatp556
Rp557
ag312
((lp558
(lp559
g315
aF0.42789540982689017
aa(lp560
g317
aI18
aa(lp561
g319
aF0.22169166627303505
aa(lp562
g321
aI12
aa(lp563
g323
aI10
aatp564
Rp565
ag312
((lp566
(lp567
g315
aF0.9926179780543045
aa(lp568
g317
aI12
aa(lp569
g319
aF0.12088995980580641
aa(lp570
g321
aI5
aa(lp571
g323
aI5
aatp572
Rp573
ag312
((lp574
(lp575
g315
aF0.7140798519983268
aa(lp576
g317
aI6
aa(lp577
g319
aF0.4221069999614152
aa(lp578
g321
aI10
aa(lp579
g323
aI6
aatp580
Rp581
ag312
((lp582
(lp583
g315
aF0.7140798519983268
aa(lp584
g317
aI12
aa(lp585
g319
aF0.4221069999614152
aa(lp586
g321
aI13
aa(lp587
g323
aI31
aatp588
Rp589
ag312
((lp590
(lp591
g315
aF0.9926179780543045
aa(lp592
g317
aI16
aa(lp593
g319
aF0.12088995980580641
aa(lp594
g321
aI9
aa(lp595
g323
aI13
aatp596
Rp597
ag312
((lp598
(lp599
g315
aF0.42789540982689017
aa(lp600
g317
aI11
aa(lp601
g319
aF0.22169166627303505
aa(lp602
g321
aI12
aa(lp603
g323
aI2
aatp604
Rp605
ag312
((lp606
(lp607
g315
aF0.7140798519983268
aa(lp608
g317
aI6
aa(lp609
g319
aF0.4221069999614152
aa(lp610
g321
aI10
aa(lp611
g323
aI6
aatp612
Rp613
ag312
((lp614
(lp615
g315
aF0.9926179780543045
aa(lp616
g317
aI20
aa(lp617
g319
aF0.12088995980580641
aa(lp618
g321
aI12
aa(lp619
g323
aI9
aatp620
Rp621
ag312
((lp622
(lp623
g315
aF0.9926179780543045
aa(lp624
g317
aI18
aa(lp625
g319
aF0.12088995980580641
aa(lp626
g321
aI7
aa(lp627
g323
aI37
aatp628
Rp629
ag312
((lp630
(lp631
g315
aF0.42789540982689017
aa(lp632
g317
aI2
aa(lp633
g319
aF0.22169166627303505
aa(lp634
g321
aI9
aa(lp635
g323
aI25
aatp636
Rp637
ag312
((lp638
(lp639
g315
aF0.42789540982689017
aa(lp640
g317
aI14
aa(lp641
g319
aF0.22169166627303505
aa(lp642
g321
aI9
aa(lp643
g323
aI10
aatp644
Rp645
ag312
((lp646
(lp647
g315
aF0.9926179780543045
aa(lp648
g317
aI12
aa(lp649
g319
aF0.12088995980580641
aa(lp650
g321
aI5
aa(lp651
g323
aI5
aatp652
Rp653
ag312
((lp654
(lp655
g315
aF0.42789540982689017
aa(lp656
g317
aI11
aa(lp657
g319
aF0.22169166627303505
aa(lp658
g321
aI12
aa(lp659
g323
aI2
aatp660
Rp661
ag312
((lp662
(lp663
g315
aF0.9926179780543045
aa(lp664
g317
aI12
aa(lp665
g319
aF0.12088995980580641
aa(lp666
g321
aI5
aa(lp667
g323
aI5
aatp668
Rp669
ag312
((lp670
(lp671
g315
aF0.9926179780543045
aa(lp672
g317
aI18
aa(lp673
g319
aF0.12088995980580641
aa(lp674
g321
aI7
aa(lp675
g323
aI37
aatp676
Rp677
ag312
((lp678
(lp679
g315
aF0.42789540982689017
aa(lp680
g317
aI11
aa(lp681
g319
aF0.22169166627303505
aa(lp682
g321
aI12
aa(lp683
g323
aI2
aatp684
Rp685
ag312
((lp686
(lp687
g315
aF0.7140798519983268
aa(lp688
g317
aI6
aa(lp689
g319
aF0.4221069999614152
aa(lp690
g321
aI10
aa(lp691
g323
aI6
aatp692
Rp693
ag312
((lp694
(lp695
g315
aF0.7140798519983268
aa(lp696
g317
aI12
aa(lp697
g319
aF0.4221069999614152
aa(lp698
g321
aI13
aa(lp699
g323
aI31
aatp700
Rp701
ag312
((lp702
(lp703
g315
aF0.2407536057549969
aa(lp704
g317
aI6
aa(lp705
g319
aF0.2187810373376886
aa(lp706
g321
aI10
aa(lp707
g323
aI15
aatp708
Rp709
ag312
((lp710
(lp711
g315
aF0.2407536057549969
aa(lp712
g317
aI12
aa(lp713
g319
aF0.2187810373376886
aa(lp714
g321
aI5
aa(lp715
g323
aI5
aatp716
Rp717
ag312
((lp718
(lp719
g315
aF0.42789540982689017
aa(lp720
g317
aI2
aa(lp721
g319
aF0.22169166627303505
aa(lp722
g321
aI9
aa(lp723
g323
aI25
aatp724
Rp725
ag312
((lp726
(lp727
g315
aF0.42789540982689017
aa(lp728
g317
aI17
aa(lp729
g319
aF0.22169166627303505
aa(lp730
g321
aI11
aa(lp731
g323
aI12
aatp732
Rp733
ag312
((lp734
(lp735
g315
aF0.42789540982689017
aa(lp736
g317
aI2
aa(lp737
g319
aF0.22169166627303505
aa(lp738
g321
aI9
aa(lp739
g323
aI25
aatp740
Rp741
ag312
((lp742
(lp743
g315
aF0.42789540982689017
aa(lp744
g317
aI2
aa(lp745
g319
aF0.22169166627303505
aa(lp746
g321
aI9
aa(lp747
g323
aI25
aatp748
Rp749
ag312
((lp750
(lp751
g315
aF0.42789540982689017
aa(lp752
g317
aI11
aa(lp753
g319
aF0.22169166627303505
aa(lp754
g321
aI12
aa(lp755
g323
aI2
aatp756
Rp757
ag312
((lp758
(lp759
g315
aF0.9926179780543045
aa(lp760
g317
aI12
aa(lp761
g319
aF0.12088995980580641
aa(lp762
g321
aI5
aa(lp763
g323
aI5
aatp764
Rp765
ag312
((lp766
(lp767
g315
aF0.9926179780543045
aa(lp768
g317
aI20
aa(lp769
g319
aF0.12088995980580641
aa(lp770
g321
aI12
aa(lp771
g323
aI9
aatp772
Rp773
ag312
((lp774
(lp775
g315
aF0.9926179780543045
aa(lp776
g317
aI7
aa(lp777
g319
aF0.12088995980580641
aa(lp778
g321
aI12
aa(lp779
g323
aI23
aatp780
Rp781
ag312
((lp782
(lp783
g315
aF0.7140798519983268
aa(lp784
g317
aI16
aa(lp785
g319
aF0.4221069999614152
aa(lp786
g321
aI7
aa(lp787
g323
aI11
aatp788
Rp789
ag312
((lp790
(lp791
g315
aF0.42789540982689017
aa(lp792
g317
aI11
aa(lp793
g319
aF0.22169166627303505
aa(lp794
g321
aI12
aa(lp795
g323
aI2
aatp796
Rp797
ag312
((lp798
(lp799
g315
aF0.42789540982689017
aa(lp800
g317
aI2
aa(lp801
g319
aF0.22169166627303505
aa(lp802
g321
aI9
aa(lp803
g323
aI25
aatp804
Rp805
ag312
((lp806
(lp807
g315
aF0.42789540982689017
aa(lp808
g317
aI18
aa(lp809
g319
aF0.22169166627303505
aa(lp810
g321
aI12
aa(lp811
g323
aI10
aatp812
Rp813
ag312
((lp814
(lp815
g315
aF0.9926179780543045
aa(lp816
g317
aI20
aa(lp817
g319
aF0.12088995980580641
aa(lp818
g321
aI12
aa(lp819
g323
aI9
aatp820
Rp821
ag312
((lp822
(lp823
g315
aF0.9926179780543045
aa(lp824
g317
aI4
aa(lp825
g319
aF0.12088995980580641
aa(lp826
g321
aI15
aa(lp827
g323
aI9
aatp828
Rp829
ag312
((lp830
(lp831
g315
aF0.42789540982689017
aa(lp832
g317
aI7
aa(lp833
g319
aF0.22169166627303505
aa(lp834
g321
aI12
aa(lp835
g323
aI23
aatp836
Rp837
ag312
((lp838
(lp839
g315
aF0.7140798519983268
aa(lp840
g317
aI19
aa(lp841
g319
aF0.4221069999614152
aa(lp842
g321
aI17
aa(lp843
g323
aI34
aatp844
Rp845
ag312
((lp846
(lp847
g315
aF0.42789540982689017
aa(lp848
g317
aI2
aa(lp849
g319
aF0.22169166627303505
aa(lp850
g321
aI9
aa(lp851
g323
aI25
aatp852
Rp853
ag312
((lp854
(lp855
g315
aF0.42789540982689017
aa(lp856
g317
aI18
aa(lp857
g319
aF0.22169166627303505
aa(lp858
g321
aI12
aa(lp859
g323
aI10
aatp860
Rp861
ag312
((lp862
(lp863
g315
aF0.42789540982689017
aa(lp864
g317
aI11
aa(lp865
g319
aF0.22169166627303505
aa(lp866
g321
aI12
aa(lp867
g323
aI2
aatp868
Rp869
ag312
((lp870
(lp871
g315
aF0.42789540982689017
aa(lp872
g317
aI18
aa(lp873
g319
aF0.22169166627303505
aa(lp874
g321
aI12
aa(lp875
g323
aI10
aatp876
Rp877
ag312
((lp878
(lp879
g315
aF0.42789540982689017
aa(lp880
g317
aI2
aa(lp881
g319
aF0.22169166627303505
aa(lp882
g321
aI9
aa(lp883
g323
aI25
aatp884
Rp885
ag312
((lp886
(lp887
g315
aF0.9926179780543045
aa(lp888
g317
aI20
aa(lp889
g319
aF0.12088995980580641
aa(lp890
g321
aI12
aa(lp891
g323
aI9
aatp892
Rp893
ag312
((lp894
(lp895
g315
aF0.42789540982689017
aa(lp896
g317
aI14
aa(lp897
g319
aF0.22169166627303505
aa(lp898
g321
aI9
aa(lp899
g323
aI10
aatp900
Rp901
ag312
((lp902
(lp903
g315
aF0.7140798519983268
aa(lp904
g317
aI6
aa(lp905
g319
aF0.4221069999614152
aa(lp906
g321
aI10
aa(lp907
g323
aI6
aatp908
Rp909
ag312
((lp910
(lp911
g315
aF0.9926179780543045
aa(lp912
g317
aI20
aa(lp913
g319
aF0.12088995980580641
aa(lp914
g321
aI12
aa(lp915
g323
aI9
aatp916
Rp917
ag312
((lp918
(lp919
g315
aF0.2407536057549969
aa(lp920
g317
aI6
aa(lp921
g319
aF0.2187810373376886
aa(lp922
g321
aI10
aa(lp923
g323
aI15
aatp924
Rp925
ag312
((lp926
(lp927
g315
aF0.9926179780543045
aa(lp928
g317
aI20
aa(lp929
g319
aF0.12088995980580641
aa(lp930
g321
aI12
aa(lp931
g323
aI9
aatp932
Rp933
ag312
((lp934
(lp935
g315
aF0.7140798519983268
aa(lp936
g317
aI6
aa(lp937
g319
aF0.4221069999614152
aa(lp938
g321
aI10
aa(lp939
g323
aI6
aatp940
Rp941
ag312
((lp942
(lp943
g315
aF0.7140798519983268
aa(lp944
g317
aI19
aa(lp945
g319
aF0.4221069999614152
aa(lp946
g321
aI11
aa(lp947
g323
aI11
aatp948
Rp949
ag312
((lp950
(lp951
g315
aF0.42789540982689017
aa(lp952
g317
aI2
aa(lp953
g319
aF0.22169166627303505
aa(lp954
g321
aI9
aa(lp955
g323
aI25
aatp956
Rp957
ag312
((lp958
(lp959
g315
aF0.42789540982689017
aa(lp960
g317
aI16
aa(lp961
g319
aF0.22169166627303505
aa(lp962
g321
aI3
aa(lp963
g323
aI46
aatp964
Rp965
ag312
((lp966
(lp967
g315
aF0.42789540982689017
aa(lp968
g317
aI2
aa(lp969
g319
aF0.22169166627303505
aa(lp970
g321
aI9
aa(lp971
g323
aI25
aatp972
Rp973
ag312
((lp974
(lp975
g315
aF0.42789540982689017
aa(lp976
g317
aI11
aa(lp977
g319
aF0.22169166627303505
aa(lp978
g321
aI12
aa(lp979
g323
aI2
aatp980
Rp981
ag312
((lp982
(lp983
g315
aF0.42789540982689017
aa(lp984
g317
aI18
aa(lp985
g319
aF0.22169166627303505
aa(lp986
g321
aI12
aa(lp987
g323
aI10
aatp988
Rp989
ag312
((lp990
(lp991
g315
aF0.7140798519983268
aa(lp992
g317
aI18
aa(lp993
g319
aF0.4221069999614152
aa(lp994
g321
aI5
aa(lp995
g323
aI26
aatp996
Rp997
ag312
((lp998
(lp999
g315
aF0.42789540982689017
aa(lp1000
g317
aI11
aa(lp1001
g319
aF0.22169166627303505
aa(lp1002
g321
aI12
aa(lp1003
g323
aI2
aatp1004
Rp1005
ag312
((lp1006
(lp1007
g315
aF0.42789540982689017
aa(lp1008
g317
aI17
aa(lp1009
g319
aF0.22169166627303505
aa(lp1010
g321
aI11
aa(lp1011
g323
aI12
aatp1012
Rp1013
ag312
((lp1014
(lp1015
g315
aF0.7140798519983268
aa(lp1016
g317
aI19
aa(lp1017
g319
aF0.4221069999614152
aa(lp1018
g321
aI17
aa(lp1019
g323
aI34
aatp1020
Rp1021
ag312
((lp1022
(lp1023
g315
aF0.7140798519983268
aa(lp1024
g317
aI19
aa(lp1025
g319
aF0.4221069999614152
aa(lp1026
g321
aI17
aa(lp1027
g323
aI34
aatp1028
Rp1029
ag312
((lp1030
(lp1031
g315
aF0.42789540982689017
aa(lp1032
g317
aI18
aa(lp1033
g319
aF0.22169166627303505
aa(lp1034
g321
aI12
aa(lp1035
g323
aI10
aatp1036
Rp1037
ag312
((lp1038
(lp1039
g315
aF0.7140798519983268
aa(lp1040
g317
aI19
aa(lp1041
g319
aF0.4221069999614152
aa(lp1042
g321
aI11
aa(lp1043
g323
aI11
aatp1044
Rp1045
ag312
((lp1046
(lp1047
g315
aF0.9926179780543045
aa(lp1048
g317
aI7
aa(lp1049
g319
aF0.12088995980580641
aa(lp1050
g321
aI12
aa(lp1051
g323
aI23
aatp1052
Rp1053
ag312
((lp1054
(lp1055
g315
aF0.9926179780543045
aa(lp1056
g317
aI16
aa(lp1057
g319
aF0.12088995980580641
aa(lp1058
g321
aI9
aa(lp1059
g323
aI13
aatp1060
Rp1061
ag312
((lp1062
(lp1063
g315
aF0.7140798519983268
aa(lp1064
g317
aI18
aa(lp1065
g319
aF0.4221069999614152
aa(lp1066
g321
aI5
aa(lp1067
g323
aI26
aatp1068
Rp1069
ag312
((lp1070
(lp1071
g315
aF0.42789540982689017
aa(lp1072
g317
aI11
aa(lp1073
g319
aF0.22169166627303505
aa(lp1074
g321
aI12
aa(lp1075
g323
aI2
aatp1076
Rp1077
ag312
((lp1078
(lp1079
g315
aF0.42789540982689017
aa(lp1080
g317
aI11
aa(lp1081
g319
aF0.22169166627303505
aa(lp1082
g321
aI12
aa(lp1083
g323
aI2
aatp1084
Rp1085
ag312
((lp1086
(lp1087
g315
aF0.9926179780543045
aa(lp1088
g317
aI20
aa(lp1089
g319
aF0.12088995980580641
aa(lp1090
g321
aI12
aa(lp1091
g323
aI9
aatp1092
Rp1093
ag312
((lp1094
(lp1095
g315
aF0.9926179780543045
aa(lp1096
g317
aI12
aa(lp1097
g319
aF0.12088995980580641
aa(lp1098
g321
aI5
aa(lp1099
g323
aI5
aatp1100
Rp1101
ag312
((lp1102
(lp1103
g315
aF0.7140798519983268
aa(lp1104
g317
aI19
aa(lp1105
g319
aF0.4221069999614152
aa(lp1106
g321
aI11
aa(lp1107
g323
aI11
aatp1108
Rp1109
ag312
((lp1110
(lp1111
g315
aF0.42789540982689017
aa(lp1112
g317
aI2
aa(lp1113
g319
aF0.22169166627303505
aa(lp1114
g321
aI9
aa(lp1115
g323
aI25
aatp1116
Rp1117
aaF9.63565993309021
asS'run_rfclas'
p1118
(lp1119
(lp1120
g4
(g8
S'\xe0z\x14\xaeG\xe1\xea?'
p1121
tp1122
Rp1123
ag4
(g8
S'^N\xc1\xcb)x\xe9?'
p1124
tp1125
Rp1126
ag4
(g8
S'\xab\xaa\xaa\xaa\xaa\xaa\xec?'
p1127
tp1128
Rp1129
ag4
(g8
S'\xab\xaa\xaa\xaa\xaa\xaa\xec?'
p1130
tp1131
Rp1132
ag4
(g8
S'\xab\xaa\xaa\xaa\xaa\xaa\xea?'
p1133
tp1134
Rp1135
ag4
(g8
S'UUUUUU\xeb?'
p1136
tp1137
Rp1138
ag4
(g8
S'UUUUUU\xe9?'
p1139
tp1140
Rp1141
ag4
(g8
S'\xe5\nbr\x051\xe9?'
p1142
tp1143
Rp1144
ag4
(g8
S'g\xa3\xbe\xb3Q\xdf\xe9?'
p1145
tp1146
Rp1147
ag4
(g8
S'l\xd4w6\xea;\xeb?'
p1148
tp1149
Rp1150
ag4
(g8
S'\x9b\x99\x99\x99\x99\x99\xe9?'
p1151
tp1152
Rp1153
ag4
(g8
S'\xdb\xb6m\xdb\xb6m\xeb?'
p1154
tp1155
Rp1156
ag4
(g8
S'\x00\x00\x00\x00\x00\x00\xec?'
p1157
tp1158
Rp1159
ag4
(g8
S'TUUUUU\xe7?'
p1160
tp1161
Rp1162
ag4
(g8
S'UUUUUU\xe9?'
p1163
tp1164
Rp1165
ag4
(g8
S'UUUUUU\xe9?'
p1166
tp1167
Rp1168
ag4
(g8
S'TUUUUU\xe7?'
p1169
tp1170
Rp1171
ag4
(g8
S'l\xd4w6\xea;\xeb?'
p1172
tp1173
Rp1174
ag4
(g8
S'r\x051\xb9\x82\x98\xec?'
p1175
tp1176
Rp1177
ag4
(g8
S'l\xd4w6\xea;\xeb?'
p1178
tp1179
Rp1180
ag4
(g8
S'\x9b\x99\x99\x99\x99\x99\xe9?'
p1181
tp1182
Rp1183
ag4
(g8
S'Y\x1f\x1a\xebCc\xed?'
p1184
tp1185
Rp1186
ag4
(g8
S'\x00\x00\x00\x00\x00\x00\xe6?'
p1187
tp1188
Rp1189
ag4
(g8
S'UUUUUU\xeb?'
p1190
tp1191
Rp1192
ag4
(g8
S'\xab\xaa\xaa\xaa\xaa\xaa\xea?'
p1193
tp1194
Rp1195
ag4
(g8
S'\x00\x00\x00\x00\x00\x00\xec?'
p1196
tp1197
Rp1198
ag4
(g8
S'\xab\xaa\xaa\xaa\xaa\xaa\xea?'
p1199
tp1200
Rp1201
ag4
(g8
S'\xea;\x1b\xf5\x9d\x8d\xea?'
p1202
tp1203
Rp1204
ag4
(g8
S'\xf0l\xd4w6\xea\xeb?'
p1205
tp1206
Rp1207
ag4
(g8
S'\xea;\x1b\xf5\x9d\x8d\xea?'
p1208
tp1209
Rp1210
ag4
(g8
S'=\n\xd7\xa3p=\xea?'
p1211
tp1212
Rp1213
ag4
(g8
S'^N\xc1\xcb)x\xe9?'
p1214
tp1215
Rp1216
ag4
(g8
S'UUUUUU\xeb?'
p1217
tp1218
Rp1219
ag4
(g8
S'UUUUUU\xeb?'
p1220
tp1221
Rp1222
ag4
(g8
S'\xab\xaa\xaa\xaa\xaa\xaa\xec?'
p1223
tp1224
Rp1225
ag4
(g8
S'\x00\x00\x00\x00\x00\x00\xec?'
p1226
tp1227
Rp1228
ag4
(g8
S'UUUUUU\xe9?'
p1229
tp1230
Rp1231
ag4
(g8
S'l\xd4w6\xea;\xeb?'
p1232
tp1233
Rp1234
ag4
(g8
S'g\xa3\xbe\xb3Q\xdf\xe9?'
p1235
tp1236
Rp1237
ag4
(g8
S'\xea;\x1b\xf5\x9d\x8d\xea?'
p1238
tp1239
Rp1240
ag4
(g8
S'\x84\xebQ\xb8\x1e\x85\xeb?'
p1241
tp1242
Rp1243
ag4
(g8
S'\x88\xc6\xfa\xd0X\x1f\xea?'
p1244
tp1245
Rp1246
ag4
(g8
S'\x00\x00\x00\x00\x00\x00\xec?'
p1247
tp1248
Rp1249
ag4
(g8
S'\x00\x00\x00\x00\x00\x00\xea?'
p1250
tp1251
Rp1252
ag4
(g8
S'\xab\xaa\xaa\xaa\xaa\xaa\xea?'
p1253
tp1254
Rp1255
ag4
(g8
S'\x00\x00\x00\x00\x00\x00\xea?'
p1256
tp1257
Rp1258
ag4
(g8
S'\x00\x00\x00\x00\x00\x00\xea?'
p1259
tp1260
Rp1261
ag4
(g8
S'r\x051\xb9\x82\x98\xec?'
p1262
tp1263
Rp1264
ag4
(g8
S'g\xa3\xbe\xb3Q\xdf\xe9?'
p1265
tp1266
Rp1267
ag4
(g8
S'l\xd4w6\xea;\xeb?'
p1268
tp1269
Rp1270
ag4
(g8
S'\xe0z\x14\xaeG\xe1\xea?'
p1271
tp1272
Rp1273
ag4
(g8
S'\xdb\xb6m\xdb\xb6m\xeb?'
p1274
tp1275
Rp1276
ag4
(g8
S'\xaa\xaa\xaa\xaa\xaa\xaa\xe8?'
p1277
tp1278
Rp1279
ag4
(g8
S'\x00\x00\x00\x00\x00\x00\xec?'
p1280
tp1281
Rp1282
ag4
(g8
S'\x00\x00\x00\x00\x00\x00\xea?'
p1283
tp1284
Rp1285
ag4
(g8
S'UUUUUU\xe9?'
p1286
tp1287
Rp1288
ag4
(g8
S'\xab\xaa\xaa\xaa\xaa\xaa\xec?'
p1289
tp1290
Rp1291
ag4
(g8
S'\xea;\x1b\xf5\x9d\x8d\xea?'
p1292
tp1293
Rp1294
ag4
(g8
S'l\xd4w6\xea;\xeb?'
p1295
tp1296
Rp1297
ag4
(g8
S'\xea;\x1b\xf5\x9d\x8d\xea?'
p1298
tp1299
Rp1300
ag4
(g8
S'R\xb8\x1e\x85\xebQ\xe8?'
p1301
tp1302
Rp1303
ag4
(g8
S'\x88\xc6\xfa\xd0X\x1f\xea?'
p1304
tp1305
Rp1306
ag4
(g8
S'\xab\xaa\xaa\xaa\xaa\xaa\xec?'
p1307
tp1308
Rp1309
ag4
(g8
S'\xaa\xaa\xaa\xaa\xaa\xaa\xe8?'
p1310
tp1311
Rp1312
ag4
(g8
S'UUUUUU\xeb?'
p1313
tp1314
Rp1315
ag4
(g8
S'\x00\x00\x00\x00\x00\x00\xea?'
p1316
tp1317
Rp1318
ag4
(g8
S'UUUUUU\xeb?'
p1319
tp1320
Rp1321
ag4
(g8
S'\xe5\nbr\x051\xe9?'
p1322
tp1323
Rp1324
ag4
(g8
S'g\xa3\xbe\xb3Q\xdf\xe9?'
p1325
tp1326
Rp1327
ag4
(g8
S'\xf0l\xd4w6\xea\xeb?'
p1328
tp1329
Rp1330
ag4
(g8
S'\xe0z\x14\xaeG\xe1\xea?'
p1331
tp1332
Rp1333
ag4
(g8
S'\xdb\xb6m\xdb\xb6m\xeb?'
p1334
tp1335
Rp1336
ag4
(g8
S'\xab\xaa\xaa\xaa\xaa\xaa\xea?'
p1337
tp1338
Rp1339
ag4
(g8
S'\x00\x00\x00\x00\x00\x00\xec?'
p1340
tp1341
Rp1342
ag4
(g8
S'UUUUUU\xed?'
p1343
tp1344
Rp1345
ag4
(g8
S'\xab\xaa\xaa\xaa\xaa\xaa\xea?'
p1346
tp1347
Rp1348
ag4
(g8
S'\xaa\xaa\xaa\xaa\xaa\xaa\xe8?'
p1349
tp1350
Rp1351
ag4
(g8
S'g\xa3\xbe\xb3Q\xdf\xe9?'
p1352
tp1353
Rp1354
ag4
(g8
S']AL\xae &\xe7?'
p1355
tp1356
Rp1357
ag4
(g8
S'\xf0l\xd4w6\xea\xeb?'
p1358
tp1359
Rp1360
ag4
(g8
S'=\n\xd7\xa3p=\xea?'
p1361
tp1362
Rp1363
ag4
(g8
S'4\xd6\x87\xc6\xfa\xd0\xe8?'
p1364
tp1365
Rp1366
ag4
(g8
S'\xab\xaa\xaa\xaa\xaa\xaa\xec?'
p1367
tp1368
Rp1369
ag4
(g8
S'\x00\x00\x00\x00\x00\x00\xea?'
p1370
tp1371
Rp1372
ag4
(g8
S'\xab\xaa\xaa\xaa\xaa\xaa\xea?'
p1373
tp1374
Rp1375
ag4
(g8
S'\xaa\xaa\xaa\xaa\xaa\xaa\xe8?'
p1376
tp1377
Rp1378
ag4
(g8
S'\x00\x00\x00\x00\x00\x00\xec?'
p1379
tp1380
Rp1381
ag4
(g8
S'\xe5\nbr\x051\xe9?'
p1382
tp1383
Rp1384
ag4
(g8
S'r\x051\xb9\x82\x98\xec?'
p1385
tp1386
Rp1387
ag4
(g8
S'l\xd4w6\xea;\xeb?'
p1388
tp1389
Rp1390
ag4
(g8
S'=\n\xd7\xa3p=\xea?'
p1391
tp1392
Rp1393
ag4
(g8
S'\x88\xc6\xfa\xd0X\x1f\xea?'
p1394
tp1395
Rp1396
ag4
(g8
S'\xaa\xaa\xaa\xaa\xaa\xaa\xe8?'
p1397
tp1398
Rp1399
ag4
(g8
S'\xab\xaa\xaa\xaa\xaa\xaa\xec?'
p1400
tp1401
Rp1402
ag4
(g8
S'\x00\x00\x00\x00\x00\x00\xec?'
p1403
tp1404
Rp1405
ag4
(g8
S'\xab\xaa\xaa\xaa\xaa\xaa\xea?'
p1406
tp1407
Rp1408
ag4
(g8
S'\x00\x00\x00\x00\x00\x00\xec?'
p1409
tp1410
Rp1411
ag4
(g8
S'l\xd4w6\xea;\xeb?'
p1412
tp1413
Rp1414
ag4
(g8
S'\xe5\nbr\x051\xe9?'
p1415
tp1416
Rp1417
ag4
(g8
S'g\xa3\xbe\xb3Q\xdf\xe9?'
p1418
tp1419
Rp1420
aa(lp1421
g312
((lp1422
(lp1423
g315
aF0.2407536057549969
aa(lp1424
g317
aI6
aa(lp1425
S'max_leaf_nodes'
p1426
aI35
aa(lp1427
g323
aI17
aa(lp1428
g319
aF0.28978161459048557
aa(lp1429
S'n_estimators'
p1430
aI97
aatp1431
Rp1432
ag312
((lp1433
(lp1434
g315
aF0.2407536057549969
aa(lp1435
g317
aI18
aa(lp1436
g1426
aI29
aa(lp1437
g323
aI4
aa(lp1438
g319
aF0.28978161459048557
aa(lp1439
g1430
aI75
aatp1440
Rp1441
ag312
((lp1442
(lp1443
g315
aF0.7646572816333626
aa(lp1444
g317
aI4
aa(lp1445
g1426
aI10
aa(lp1446
g323
aI5
aa(lp1447
g319
aF0.22876222127045265
aa(lp1448
g1430
aI87
aatp1449
Rp1450
ag312
((lp1451
(lp1452
g315
aF0.7646572816333626
aa(lp1453
g317
aI2
aa(lp1454
g1426
aI23
aa(lp1455
g323
aI15
aa(lp1456
g319
aF0.22876222127045265
aa(lp1457
g1430
aI98
aatp1458
Rp1459
ag312
((lp1460
(lp1461
g315
aF0.2407536057549969
aa(lp1462
g317
aI20
aa(lp1463
g1426
aI16
aa(lp1464
g323
aI12
aa(lp1465
g319
aF0.28978161459048557
aa(lp1466
g1430
aI72
aatp1467
Rp1468
ag312
((lp1469
(lp1470
g315
aF0.2407536057549969
aa(lp1471
g317
aI4
aa(lp1472
g1426
aI46
aa(lp1473
g323
aI1
aa(lp1474
g319
aF0.28978161459048557
aa(lp1475
g1430
aI66
aatp1476
Rp1477
ag312
((lp1478
(lp1479
g315
aF0.14302060167127723
aa(lp1480
g317
aI16
aa(lp1481
g1426
aI14
aa(lp1482
g323
aI3
aa(lp1483
g319
aF0.49543508709194095
aa(lp1484
g1430
aI81
aatp1485
Rp1486
ag312
((lp1487
(lp1488
g315
aF0.2407536057549969
aa(lp1489
g317
aI12
aa(lp1490
g1426
aI17
aa(lp1491
g323
aI5
aa(lp1492
g319
aF0.28978161459048557
aa(lp1493
g1430
aI54
aatp1494
Rp1495
ag312
((lp1496
(lp1497
g315
aF0.2407536057549969
aa(lp1498
g317
aI5
aa(lp1499
g1426
aI15
aa(lp1500
g323
aI15
aa(lp1501
g319
aF0.28978161459048557
aa(lp1502
g1430
aI73
aatp1503
Rp1504
ag312
((lp1505
(lp1506
g315
aF0.2407536057549969
aa(lp1507
g317
aI4
aa(lp1508
g1426
aI46
aa(lp1509
g323
aI1
aa(lp1510
g319
aF0.28978161459048557
aa(lp1511
g1430
aI66
aatp1512
Rp1513
ag312
((lp1514
(lp1515
g315
aF0.2407536057549969
aa(lp1516
g317
aI12
aa(lp1517
g1426
aI17
aa(lp1518
g323
aI5
aa(lp1519
g319
aF0.28978161459048557
aa(lp1520
g1430
aI54
aatp1521
Rp1522
ag312
((lp1523
(lp1524
g315
aF0.2407536057549969
aa(lp1525
g317
aI6
aa(lp1526
g1426
aI12
aa(lp1527
g323
aI10
aa(lp1528
g319
aF0.28978161459048557
aa(lp1529
g1430
aI51
aatp1530
Rp1531
ag312
((lp1532
(lp1533
g315
aF0.14302060167127723
aa(lp1534
g317
aI14
aa(lp1535
g1426
aI23
aa(lp1536
g323
aI4
aa(lp1537
g319
aF0.49543508709194095
aa(lp1538
g1430
aI55
aatp1539
Rp1540
ag312
((lp1541
(lp1542
g315
aF0.2407536057549969
aa(lp1543
g317
aI6
aa(lp1544
g1426
aI35
aa(lp1545
g323
aI17
aa(lp1546
g319
aF0.28978161459048557
aa(lp1547
g1430
aI97
aatp1548
Rp1549
ag312
((lp1550
(lp1551
g315
aF0.2407536057549969
aa(lp1552
g317
aI12
aa(lp1553
g1426
aI17
aa(lp1554
g323
aI5
aa(lp1555
g319
aF0.28978161459048557
aa(lp1556
g1430
aI54
aatp1557
Rp1558
ag312
((lp1559
(lp1560
g315
aF0.2407536057549969
aa(lp1561
g317
aI13
aa(lp1562
g1426
aI43
aa(lp1563
g323
aI8
aa(lp1564
g319
aF0.28978161459048557
aa(lp1565
g1430
aI67
aatp1566
Rp1567
ag312
((lp1568
(lp1569
g315
aF0.2407536057549969
aa(lp1570
g317
aI4
aa(lp1571
g1426
aI46
aa(lp1572
g323
aI1
aa(lp1573
g319
aF0.28978161459048557
aa(lp1574
g1430
aI66
aatp1575
Rp1576
ag312
((lp1577
(lp1578
g315
aF0.2407536057549969
aa(lp1579
g317
aI18
aa(lp1580
g1426
aI29
aa(lp1581
g323
aI4
aa(lp1582
g319
aF0.28978161459048557
aa(lp1583
g1430
aI75
aatp1584
Rp1585
ag312
((lp1586
(lp1587
g315
aF0.2407536057549969
aa(lp1588
g317
aI18
aa(lp1589
g1426
aI29
aa(lp1590
g323
aI4
aa(lp1591
g319
aF0.28978161459048557
aa(lp1592
g1430
aI75
aatp1593
Rp1594
ag312
((lp1595
(lp1596
g315
aF0.2407536057549969
aa(lp1597
g317
aI4
aa(lp1598
g1426
aI46
aa(lp1599
g323
aI1
aa(lp1600
g319
aF0.28978161459048557
aa(lp1601
g1430
aI66
aatp1602
Rp1603
ag312
((lp1604
(lp1605
g315
aF0.2407536057549969
aa(lp1606
g317
aI20
aa(lp1607
g1426
aI16
aa(lp1608
g323
aI12
aa(lp1609
g319
aF0.28978161459048557
aa(lp1610
g1430
aI72
aatp1611
Rp1612
ag312
((lp1613
(lp1614
g315
aF0.2407536057549969
aa(lp1615
g317
aI18
aa(lp1616
g1426
aI29
aa(lp1617
g323
aI4
aa(lp1618
g319
aF0.28978161459048557
aa(lp1619
g1430
aI75
aatp1620
Rp1621
ag312
((lp1622
(lp1623
g315
aF0.2407536057549969
aa(lp1624
g317
aI4
aa(lp1625
g1426
aI46
aa(lp1626
g323
aI1
aa(lp1627
g319
aF0.28978161459048557
aa(lp1628
g1430
aI66
aatp1629
Rp1630
ag312
((lp1631
(lp1632
g315
aF0.2407536057549969
aa(lp1633
g317
aI13
aa(lp1634
g1426
aI43
aa(lp1635
g323
aI8
aa(lp1636
g319
aF0.28978161459048557
aa(lp1637
g1430
aI67
aatp1638
Rp1639
ag312
((lp1640
(lp1641
g315
aF0.2407536057549969
aa(lp1642
g317
aI18
aa(lp1643
g1426
aI29
aa(lp1644
g323
aI4
aa(lp1645
g319
aF0.28978161459048557
aa(lp1646
g1430
aI75
aatp1647
Rp1648
ag312
((lp1649
(lp1650
g315
aF0.14302060167127723
aa(lp1651
g317
aI20
aa(lp1652
g1426
aI7
aa(lp1653
g323
aI5
aa(lp1654
g319
aF0.49543508709194095
aa(lp1655
g1430
aI81
aatp1656
Rp1657
ag312
((lp1658
(lp1659
g315
aF0.7646572816333626
aa(lp1660
g317
aI18
aa(lp1661
g1426
aI46
aa(lp1662
g323
aI1
aa(lp1663
g319
aF0.22876222127045265
aa(lp1664
g1430
aI60
aatp1665
Rp1666
ag312
((lp1667
(lp1668
g315
aF0.2407536057549969
aa(lp1669
g317
aI18
aa(lp1670
g1426
aI29
aa(lp1671
g323
aI4
aa(lp1672
g319
aF0.28978161459048557
aa(lp1673
g1430
aI75
aatp1674
Rp1675
ag312
((lp1676
(lp1677
g315
aF0.2407536057549969
aa(lp1678
g317
aI13
aa(lp1679
g1426
aI43
aa(lp1680
g323
aI8
aa(lp1681
g319
aF0.28978161459048557
aa(lp1682
g1430
aI67
aatp1683
Rp1684
ag312
((lp1685
(lp1686
g315
aF0.14302060167127723
aa(lp1687
g317
aI16
aa(lp1688
g1426
aI14
aa(lp1689
g323
aI3
aa(lp1690
g319
aF0.49543508709194095
aa(lp1691
g1430
aI81
aatp1692
Rp1693
ag312
((lp1694
(lp1695
g315
aF0.14302060167127723
aa(lp1696
g317
aI7
aa(lp1697
g1426
aI18
aa(lp1698
g323
aI11
aa(lp1699
g319
aF0.49543508709194095
aa(lp1700
g1430
aI79
aatp1701
Rp1702
ag312
((lp1703
(lp1704
g315
aF0.2407536057549969
aa(lp1705
g317
aI13
aa(lp1706
g1426
aI43
aa(lp1707
g323
aI8
aa(lp1708
g319
aF0.28978161459048557
aa(lp1709
g1430
aI67
aatp1710
Rp1711
ag312
((lp1712
(lp1713
g315
aF0.2407536057549969
aa(lp1714
g317
aI4
aa(lp1715
g1426
aI46
aa(lp1716
g323
aI1
aa(lp1717
g319
aF0.28978161459048557
aa(lp1718
g1430
aI66
aatp1719
Rp1720
ag312
((lp1721
(lp1722
g315
aF0.7646572816333626
aa(lp1723
g317
aI2
aa(lp1724
g1426
aI34
aa(lp1725
g323
aI2
aa(lp1726
g319
aF0.22876222127045265
aa(lp1727
g1430
aI55
aatp1728
Rp1729
ag312
((lp1730
(lp1731
g315
aF0.7646572816333626
aa(lp1732
g317
aI7
aa(lp1733
g1426
aI45
aa(lp1734
g323
aI12
aa(lp1735
g319
aF0.22876222127045265
aa(lp1736
g1430
aI97
aatp1737
Rp1738
ag312
((lp1739
(lp1740
g315
aF0.2407536057549969
aa(lp1741
g317
aI13
aa(lp1742
g1426
aI43
aa(lp1743
g323
aI8
aa(lp1744
g319
aF0.28978161459048557
aa(lp1745
g1430
aI67
aatp1746
Rp1747
ag312
((lp1748
(lp1749
g315
aF0.2407536057549969
aa(lp1750
g317
aI5
aa(lp1751
g1426
aI15
aa(lp1752
g323
aI15
aa(lp1753
g319
aF0.28978161459048557
aa(lp1754
g1430
aI73
aatp1755
Rp1756
ag312
((lp1757
(lp1758
g315
aF0.2407536057549969
aa(lp1759
g317
aI18
aa(lp1760
g1426
aI29
aa(lp1761
g323
aI4
aa(lp1762
g319
aF0.28978161459048557
aa(lp1763
g1430
aI75
aatp1764
Rp1765
ag312
((lp1766
(lp1767
g315
aF0.2407536057549969
aa(lp1768
g317
aI18
aa(lp1769
g1426
aI29
aa(lp1770
g323
aI4
aa(lp1771
g319
aF0.28978161459048557
aa(lp1772
g1430
aI75
aatp1773
Rp1774
ag312
((lp1775
(lp1776
g315
aF0.2407536057549969
aa(lp1777
g317
aI20
aa(lp1778
g1426
aI7
aa(lp1779
g323
aI5
aa(lp1780
g319
aF0.28978161459048557
aa(lp1781
g1430
aI81
aatp1782
Rp1783
ag312
((lp1784
(lp1785
g315
aF0.2407536057549969
aa(lp1786
g317
aI6
aa(lp1787
g1426
aI12
aa(lp1788
g323
aI10
aa(lp1789
g319
aF0.28978161459048557
aa(lp1790
g1430
aI51
aatp1791
Rp1792
ag312
((lp1793
(lp1794
g315
aF0.2407536057549969
aa(lp1795
g317
aI20
aa(lp1796
g1426
aI42
aa(lp1797
g323
aI7
aa(lp1798
g319
aF0.28978161459048557
aa(lp1799
g1430
aI55
aatp1800
Rp1801
ag312
((lp1802
(lp1803
g315
aF0.2407536057549969
aa(lp1804
g317
aI19
aa(lp1805
g1426
aI16
aa(lp1806
g323
aI6
aa(lp1807
g319
aF0.28978161459048557
aa(lp1808
g1430
aI74
aatp1809
Rp1810
ag312
((lp1811
(lp1812
g315
aF0.2407536057549969
aa(lp1813
g317
aI20
aa(lp1814
g1426
aI42
aa(lp1815
g323
aI7
aa(lp1816
g319
aF0.28978161459048557
aa(lp1817
g1430
aI55
aatp1818
Rp1819
ag312
((lp1820
(lp1821
g315
aF0.2407536057549969
aa(lp1822
g317
aI18
aa(lp1823
g1426
aI29
aa(lp1824
g323
aI4
aa(lp1825
g319
aF0.28978161459048557
aa(lp1826
g1430
aI75
aatp1827
Rp1828
ag312
((lp1829
(lp1830
g315
aF0.7646572816333626
aa(lp1831
g317
aI18
aa(lp1832
g1426
aI46
aa(lp1833
g323
aI1
aa(lp1834
g319
aF0.22876222127045265
aa(lp1835
g1430
aI60
aatp1836
Rp1837
ag312
((lp1838
(lp1839
g315
aF0.2407536057549969
aa(lp1840
g317
aI18
aa(lp1841
g1426
aI29
aa(lp1842
g323
aI4
aa(lp1843
g319
aF0.28978161459048557
aa(lp1844
g1430
aI75
aatp1845
Rp1846
ag312
((lp1847
(lp1848
g315
aF0.22443340315930727
aa(lp1849
g317
aI7
aa(lp1850
g1426
aI45
aa(lp1851
g323
aI12
aa(lp1852
g319
aF0.43788759365057206
aa(lp1853
g1430
aI97
aatp1854
Rp1855
ag312
((lp1856
(lp1857
g315
aF0.2407536057549969
aa(lp1858
g317
aI20
aa(lp1859
g1426
aI42
aa(lp1860
g323
aI7
aa(lp1861
g319
aF0.28978161459048557
aa(lp1862
g1430
aI55
aatp1863
Rp1864
ag312
((lp1865
(lp1866
g315
aF0.2407536057549969
aa(lp1867
g317
aI6
aa(lp1868
g1426
aI35
aa(lp1869
g323
aI17
aa(lp1870
g319
aF0.28978161459048557
aa(lp1871
g1430
aI97
aatp1872
Rp1873
ag312
((lp1874
(lp1875
g315
aF0.2407536057549969
aa(lp1876
g317
aI4
aa(lp1877
g1426
aI46
aa(lp1878
g323
aI1
aa(lp1879
g319
aF0.28978161459048557
aa(lp1880
g1430
aI66
aatp1881
Rp1882
ag312
((lp1883
(lp1884
g315
aF0.2407536057549969
aa(lp1885
g317
aI18
aa(lp1886
g1426
aI29
aa(lp1887
g323
aI4
aa(lp1888
g319
aF0.28978161459048557
aa(lp1889
g1430
aI75
aatp1890
Rp1891
ag312
((lp1892
(lp1893
g315
aF0.7646572816333626
aa(lp1894
g317
aI3
aa(lp1895
g1426
aI29
aa(lp1896
g323
aI2
aa(lp1897
g319
aF0.22876222127045265
aa(lp1898
g1430
aI53
aatp1899
Rp1900
ag312
((lp1901
(lp1902
g315
aF0.2407536057549969
aa(lp1903
g317
aI7
aa(lp1904
g1426
aI45
aa(lp1905
g323
aI12
aa(lp1906
g319
aF0.28978161459048557
aa(lp1907
g1430
aI97
aatp1908
Rp1909
ag312
((lp1910
(lp1911
g315
aF0.2407536057549969
aa(lp1912
g317
aI13
aa(lp1913
g1426
aI43
aa(lp1914
g323
aI8
aa(lp1915
g319
aF0.28978161459048557
aa(lp1916
g1430
aI67
aatp1917
Rp1918
ag312
((lp1919
(lp1920
g315
aF0.2407536057549969
aa(lp1921
g317
aI4
aa(lp1922
g1426
aI46
aa(lp1923
g323
aI1
aa(lp1924
g319
aF0.28978161459048557
aa(lp1925
g1430
aI66
aatp1926
Rp1927
ag312
((lp1928
(lp1929
g315
aF0.2407536057549969
aa(lp1930
g317
aI12
aa(lp1931
g1426
aI17
aa(lp1932
g323
aI5
aa(lp1933
g319
aF0.28978161459048557
aa(lp1934
g1430
aI54
aatp1935
Rp1936
ag312
((lp1937
(lp1938
g315
aF0.2407536057549969
aa(lp1939
g317
aI12
aa(lp1940
g1426
aI17
aa(lp1941
g323
aI5
aa(lp1942
g319
aF0.28978161459048557
aa(lp1943
g1430
aI54
aatp1944
Rp1945
ag312
((lp1946
(lp1947
g315
aF0.2407536057549969
aa(lp1948
g317
aI12
aa(lp1949
g1426
aI17
aa(lp1950
g323
aI5
aa(lp1951
g319
aF0.28978161459048557
aa(lp1952
g1430
aI54
aatp1953
Rp1954
ag312
((lp1955
(lp1956
g315
aF0.14302060167127723
aa(lp1957
g317
aI20
aa(lp1958
g1426
aI7
aa(lp1959
g323
aI5
aa(lp1960
g319
aF0.49543508709194095
aa(lp1961
g1430
aI81
aatp1962
Rp1963
ag312
((lp1964
(lp1965
g315
aF0.7646572816333626
aa(lp1966
g317
aI3
aa(lp1967
g1426
aI29
aa(lp1968
g323
aI2
aa(lp1969
g319
aF0.22876222127045265
aa(lp1970
g1430
aI53
aatp1971
Rp1972
ag312
((lp1973
(lp1974
g315
aF0.2407536057549969
aa(lp1975
g317
aI12
aa(lp1976
g1426
aI17
aa(lp1977
g323
aI5
aa(lp1978
g319
aF0.28978161459048557
aa(lp1979
g1430
aI54
aatp1980
Rp1981
ag312
((lp1982
(lp1983
g315
aF0.2407536057549969
aa(lp1984
g317
aI20
aa(lp1985
g1426
aI42
aa(lp1986
g323
aI7
aa(lp1987
g319
aF0.28978161459048557
aa(lp1988
g1430
aI55
aatp1989
Rp1990
ag312
((lp1991
(lp1992
g315
aF0.2407536057549969
aa(lp1993
g317
aI16
aa(lp1994
g1426
aI14
aa(lp1995
g323
aI3
aa(lp1996
g319
aF0.28978161459048557
aa(lp1997
g1430
aI81
aatp1998
Rp1999
ag312
((lp2000
(lp2001
g315
aF0.2407536057549969
aa(lp2002
g317
aI18
aa(lp2003
g1426
aI29
aa(lp2004
g323
aI4
aa(lp2005
g319
aF0.28978161459048557
aa(lp2006
g1430
aI75
aatp2007
Rp2008
ag312
((lp2009
(lp2010
g315
aF0.2407536057549969
aa(lp2011
g317
aI20
aa(lp2012
g1426
aI16
aa(lp2013
g323
aI12
aa(lp2014
g319
aF0.28978161459048557
aa(lp2015
g1430
aI72
aatp2016
Rp2017
ag312
((lp2018
(lp2019
g315
aF0.2407536057549969
aa(lp2020
g317
aI18
aa(lp2021
g1426
aI29
aa(lp2022
g323
aI4
aa(lp2023
g319
aF0.28978161459048557
aa(lp2024
g1430
aI75
aatp2025
Rp2026
ag312
((lp2027
(lp2028
g315
aF0.2407536057549969
aa(lp2029
g317
aI18
aa(lp2030
g1426
aI29
aa(lp2031
g323
aI4
aa(lp2032
g319
aF0.28978161459048557
aa(lp2033
g1430
aI75
aatp2034
Rp2035
ag312
((lp2036
(lp2037
g315
aF0.7646572816333626
aa(lp2038
g317
aI18
aa(lp2039
g1426
aI46
aa(lp2040
g323
aI1
aa(lp2041
g319
aF0.22876222127045265
aa(lp2042
g1430
aI60
aatp2043
Rp2044
ag312
((lp2045
(lp2046
g315
aF0.2407536057549969
aa(lp2047
g317
aI4
aa(lp2048
g1426
aI46
aa(lp2049
g323
aI1
aa(lp2050
g319
aF0.28978161459048557
aa(lp2051
g1430
aI66
aatp2052
Rp2053
ag312
((lp2054
(lp2055
g315
aF0.2407536057549969
aa(lp2056
g317
aI14
aa(lp2057
g1426
aI48
aa(lp2058
g323
aI8
aa(lp2059
g319
aF0.28978161459048557
aa(lp2060
g1430
aI65
aatp2061
Rp2062
ag312
((lp2063
(lp2064
g315
aF0.22443340315930727
aa(lp2065
g317
aI7
aa(lp2066
g1426
aI45
aa(lp2067
g323
aI12
aa(lp2068
g319
aF0.43788759365057206
aa(lp2069
g1430
aI97
aatp2070
Rp2071
ag312
((lp2072
(lp2073
g315
aF0.2407536057549969
aa(lp2074
g317
aI18
aa(lp2075
g1426
aI29
aa(lp2076
g323
aI4
aa(lp2077
g319
aF0.28978161459048557
aa(lp2078
g1430
aI75
aatp2079
Rp2080
ag312
((lp2081
(lp2082
g315
aF0.2407536057549969
aa(lp2083
g317
aI18
aa(lp2084
g1426
aI29
aa(lp2085
g323
aI4
aa(lp2086
g319
aF0.28978161459048557
aa(lp2087
g1430
aI75
aatp2088
Rp2089
ag312
((lp2090
(lp2091
g315
aF0.2407536057549969
aa(lp2092
g317
aI18
aa(lp2093
g1426
aI29
aa(lp2094
g323
aI4
aa(lp2095
g319
aF0.28978161459048557
aa(lp2096
g1430
aI75
aatp2097
Rp2098
ag312
((lp2099
(lp2100
g315
aF0.2407536057549969
aa(lp2101
g317
aI6
aa(lp2102
g1426
aI12
aa(lp2103
g323
aI10
aa(lp2104
g319
aF0.28978161459048557
aa(lp2105
g1430
aI51
aatp2106
Rp2107
ag312
((lp2108
(lp2109
g315
aF0.2407536057549969
aa(lp2110
g317
aI4
aa(lp2111
g1426
aI46
aa(lp2112
g323
aI1
aa(lp2113
g319
aF0.28978161459048557
aa(lp2114
g1430
aI66
aatp2115
Rp2116
ag312
((lp2117
(lp2118
g315
aF0.2407536057549969
aa(lp2119
g317
aI18
aa(lp2120
g1426
aI29
aa(lp2121
g323
aI4
aa(lp2122
g319
aF0.28978161459048557
aa(lp2123
g1430
aI75
aatp2124
Rp2125
ag312
((lp2126
(lp2127
g315
aF0.2407536057549969
aa(lp2128
g317
aI6
aa(lp2129
g1426
aI12
aa(lp2130
g323
aI10
aa(lp2131
g319
aF0.28978161459048557
aa(lp2132
g1430
aI51
aatp2133
Rp2134
ag312
((lp2135
(lp2136
g315
aF0.2407536057549969
aa(lp2137
g317
aI16
aa(lp2138
g1426
aI14
aa(lp2139
g323
aI3
aa(lp2140
g319
aF0.28978161459048557
aa(lp2141
g1430
aI81
aatp2142
Rp2143
ag312
((lp2144
(lp2145
g315
aF0.2407536057549969
aa(lp2146
g317
aI12
aa(lp2147
g1426
aI17
aa(lp2148
g323
aI5
aa(lp2149
g319
aF0.28978161459048557
aa(lp2150
g1430
aI54
aatp2151
Rp2152
ag312
((lp2153
(lp2154
g315
aF0.2407536057549969
aa(lp2155
g317
aI18
aa(lp2156
g1426
aI29
aa(lp2157
g323
aI4
aa(lp2158
g319
aF0.28978161459048557
aa(lp2159
g1430
aI75
aatp2160
Rp2161
ag312
((lp2162
(lp2163
g315
aF0.2407536057549969
aa(lp2164
g317
aI18
aa(lp2165
g1426
aI29
aa(lp2166
g323
aI4
aa(lp2167
g319
aF0.28978161459048557
aa(lp2168
g1430
aI75
aatp2169
Rp2170
ag312
((lp2171
(lp2172
g315
aF0.2407536057549969
aa(lp2173
g317
aI6
aa(lp2174
g1426
aI35
aa(lp2175
g323
aI17
aa(lp2176
g319
aF0.28978161459048557
aa(lp2177
g1430
aI97
aatp2178
Rp2179
ag312
((lp2180
(lp2181
g315
aF0.2407536057549969
aa(lp2182
g317
aI12
aa(lp2183
g1426
aI17
aa(lp2184
g323
aI5
aa(lp2185
g319
aF0.28978161459048557
aa(lp2186
g1430
aI54
aatp2187
Rp2188
ag312
((lp2189
(lp2190
g315
aF0.7646572816333626
aa(lp2191
g317
aI2
aa(lp2192
g1426
aI23
aa(lp2193
g323
aI15
aa(lp2194
g319
aF0.22876222127045265
aa(lp2195
g1430
aI98
aatp2196
Rp2197
ag312
((lp2198
(lp2199
g315
aF0.2407536057549969
aa(lp2200
g317
aI4
aa(lp2201
g1426
aI46
aa(lp2202
g323
aI1
aa(lp2203
g319
aF0.28978161459048557
aa(lp2204
g1430
aI66
aatp2205
Rp2206
ag312
((lp2207
(lp2208
g315
aF0.2407536057549969
aa(lp2209
g317
aI18
aa(lp2210
g1426
aI29
aa(lp2211
g323
aI4
aa(lp2212
g319
aF0.28978161459048557
aa(lp2213
g1430
aI75
aatp2214
Rp2215
ag312
((lp2216
(lp2217
g315
aF0.2407536057549969
aa(lp2218
g317
aI13
aa(lp2219
g1426
aI43
aa(lp2220
g323
aI8
aa(lp2221
g319
aF0.28978161459048557
aa(lp2222
g1430
aI67
aatp2223
Rp2224
ag312
((lp2225
(lp2226
g315
aF0.2407536057549969
aa(lp2227
g317
aI20
aa(lp2228
g1426
aI7
aa(lp2229
g323
aI5
aa(lp2230
g319
aF0.28978161459048557
aa(lp2231
g1430
aI81
aatp2232
Rp2233
ag312
((lp2234
(lp2235
g315
aF0.2407536057549969
aa(lp2236
g317
aI7
aa(lp2237
g1426
aI45
aa(lp2238
g323
aI12
aa(lp2239
g319
aF0.28978161459048557
aa(lp2240
g1430
aI97
aatp2241
Rp2242
ag312
((lp2243
(lp2244
g315
aF0.14302060167127723
aa(lp2245
g317
aI20
aa(lp2246
g1426
aI7
aa(lp2247
g323
aI5
aa(lp2248
g319
aF0.49543508709194095
aa(lp2249
g1430
aI81
aatp2250
Rp2251
ag312
((lp2252
(lp2253
g315
aF0.2407536057549969
aa(lp2254
g317
aI13
aa(lp2255
g1426
aI43
aa(lp2256
g323
aI8
aa(lp2257
g319
aF0.28978161459048557
aa(lp2258
g1430
aI67
aatp2259
Rp2260
ag312
((lp2261
(lp2262
g315
aF0.2407536057549969
aa(lp2263
g317
aI18
aa(lp2264
g1426
aI29
aa(lp2265
g323
aI4
aa(lp2266
g319
aF0.28978161459048557
aa(lp2267
g1430
aI75
aatp2268
Rp2269
ag312
((lp2270
(lp2271
g315
aF0.2407536057549969
aa(lp2272
g317
aI9
aa(lp2273
g1426
aI23
aa(lp2274
g323
aI11
aa(lp2275
g319
aF0.28978161459048557
aa(lp2276
g1430
aI89
aatp2277
Rp2278
ag312
((lp2279
(lp2280
g315
aF0.2407536057549969
aa(lp2281
g317
aI18
aa(lp2282
g1426
aI29
aa(lp2283
g323
aI4
aa(lp2284
g319
aF0.28978161459048557
aa(lp2285
g1430
aI75
aatp2286
Rp2287
ag312
((lp2288
(lp2289
g315
aF0.2407536057549969
aa(lp2290
g317
aI13
aa(lp2291
g1426
aI43
aa(lp2292
g323
aI8
aa(lp2293
g319
aF0.28978161459048557
aa(lp2294
g1430
aI67
aatp2295
Rp2296
ag312
((lp2297
(lp2298
g315
aF0.2407536057549969
aa(lp2299
g317
aI6
aa(lp2300
g1426
aI12
aa(lp2301
g323
aI10
aa(lp2302
g319
aF0.28978161459048557
aa(lp2303
g1430
aI51
aatp2304
Rp2305
ag312
((lp2306
(lp2307
g315
aF0.2407536057549969
aa(lp2308
g317
aI4
aa(lp2309
g1426
aI46
aa(lp2310
g323
aI1
aa(lp2311
g319
aF0.28978161459048557
aa(lp2312
g1430
aI66
aatp2313
Rp2314
ag312
((lp2315
(lp2316
g315
aF0.7646572816333626
aa(lp2317
g317
aI18
aa(lp2318
g1426
aI46
aa(lp2319
g323
aI1
aa(lp2320
g319
aF0.22876222127045265
aa(lp2321
g1430
aI60
aatp2322
Rp2323
aaF1654.165587902069
asS'run_svmclas'
p2324
(lp2325
(lp2326
g4
(g8
S'=\n\xd7\xa3p=\xea?'
p2327
tp2328
Rp2329
ag4
(g8
S'\xb2>4\xd6\x87\xc6\xea?'
p2330
tp2331
Rp2332
ag4
(g8
S'TUUUUU\xe7?'
p2333
tp2334
Rp2335
ag4
(g8
S'\x00\x00\x00\x00\x00\x00\xe8?'
p2336
tp2337
Rp2338
ag4
(g8
S'UUUUUU\xe9?'
p2339
tp2340
Rp2341
ag4
(g8
S'\x00\x00\x00\x00\x00\x00\xec?'
p2342
tp2343
Rp2344
ag4
(g8
S'\x00\x00\x00\x00\x00\x00\xec?'
p2345
tp2346
Rp2347
ag4
(g8
S'\xe5\nbr\x051\xe9?'
p2348
tp2349
Rp2350
ag4
(g8
S']AL\xae &\xe7?'
p2351
tp2352
Rp2353
ag4
(g8
S'\xe5\nbr\x051\xe9?'
p2354
tp2355
Rp2356
ag4
(g8
S'\xe0z\x14\xaeG\xe1\xea?'
p2357
tp2358
Rp2359
ag4
(g8
S'4\xd6\x87\xc6\xfa\xd0\xe8?'
p2360
tp2361
Rp2362
ag4
(g8
S'\xab\xaa\xaa\xaa\xaa\xaa\xea?'
p2363
tp2364
Rp2365
ag4
(g8
S'UUUUUU\xe9?'
p2366
tp2367
Rp2368
ag4
(g8
S'\xaa\xaa\xaa\xaa\xaa\xaa\xe8?'
p2369
tp2370
Rp2371
ag4
(g8
S'\xaa\xaa\xaa\xaa\xaa\xaa\xe8?'
p2372
tp2373
Rp2374
ag4
(g8
S'UUUUUU\xeb?'
p2375
tp2376
Rp2377
ag4
(g8
S'g\xa3\xbe\xb3Q\xdf\xe9?'
p2378
tp2379
Rp2380
ag4
(g8
S'r\x051\xb9\x82\x98\xec?'
p2381
tp2382
Rp2383
ag4
(g8
S']AL\xae &\xe7?'
p2384
tp2385
Rp2386
ag4
(g8
S'\xf6(\\\x8f\xc2\xf5\xe8?'
p2387
tp2388
Rp2389
ag4
(g8
S'^N\xc1\xcb)x\xe9?'
p2390
tp2391
Rp2392
ag4
(g8
S'\xab\xaa\xaa\xaa\xaa\xaa\xea?'
p2393
tp2394
Rp2395
ag4
(g8
S'UUUUUU\xe9?'
p2396
tp2397
Rp2398
ag4
(g8
S'\xaa\xaa\xaa\xaa\xaa\xaa\xe8?'
p2399
tp2400
Rp2401
ag4
(g8
S'\xab\xaa\xaa\xaa\xaa\xaa\xea?'
p2402
tp2403
Rp2404
ag4
(g8
S'\x00\x00\x00\x00\x00\x00\xee?'
p2405
tp2406
Rp2407
ag4
(g8
S'\xdf\xd9\xa8\xefl\xd4\xe7?'
p2408
tp2409
Rp2410
ag4
(g8
S'ar\x051\xb9\x82\xe8?'
p2411
tp2412
Rp2413
ag4
(g8
S'g\xa3\xbe\xb3Q\xdf\xe9?'
p2414
tp2415
Rp2416
ag4
(g8
S'\xc3\xf5(\\\x8f\xc2\xe5?'
p2417
tp2418
Rp2419
ag4
(g8
S'\xe0\xe5\x14\xbc\x9c\x82\xe7?'
p2420
tp2421
Rp2422
ag4
(g8
S'\x00\x00\x00\x00\x00\x00\xea?'
p2423
tp2424
Rp2425
ag4
(g8
S'\x00\x00\x00\x00\x00\x00\xec?'
p2426
tp2427
Rp2428
ag4
(g8
S'\xaa\xaa\xaa\xaa\xaa\xaa\xe8?'
p2429
tp2430
Rp2431
ag4
(g8
S'\xaa\xaa\xaa\xaa\xaa\xaa\xe8?'
p2432
tp2433
Rp2434
ag4
(g8
S'\xab\xaa\xaa\xaa\xaa\xaa\xec?'
p2435
tp2436
Rp2437
ag4
(g8
S'l\xd4w6\xea;\xeb?'
p2438
tp2439
Rp2440
ag4
(g8
S'\xdf\xd9\xa8\xefl\xd4\xe7?'
p2441
tp2442
Rp2443
ag4
(g8
S']AL\xae &\xe7?'
p2444
tp2445
Rp2446
ag4
(g8
S'\xf6(\\\x8f\xc2\xf5\xe8?'
p2447
tp2448
Rp2449
ag4
(g8
S'\xdb\xb6m\xdb\xb6m\xeb?'
p2450
tp2451
Rp2452
ag4
(g8
S'\x00\x00\x00\x00\x00\x00\xea?'
p2453
tp2454
Rp2455
ag4
(g8
S'UUUUUU\xed?'
p2456
tp2457
Rp2458
ag4
(g8
S'\xab\xaa\xaa\xaa\xaa\xaa\xea?'
p2459
tp2460
Rp2461
ag4
(g8
S'\xaa\xaa\xaa\xaa\xaa\xaa\xe8?'
p2462
tp2463
Rp2464
ag4
(g8
S'\x00\x00\x00\x00\x00\x00\xe8?'
p2465
tp2466
Rp2467
ag4
(g8
S'ar\x051\xb9\x82\xe8?'
p2468
tp2469
Rp2470
ag4
(g8
S'ar\x051\xb9\x82\xe8?'
p2471
tp2472
Rp2473
ag4
(g8
S'\xe5\nbr\x051\xe9?'
p2474
tp2475
Rp2476
ag4
(g8
S'=\n\xd7\xa3p=\xea?'
p2477
tp2478
Rp2479
ag4
(g8
S'\x88\xc6\xfa\xd0X\x1f\xea?'
p2480
tp2481
Rp2482
ag4
(g8
S'\xaa\xaa\xaa\xaa\xaa\xaa\xe8?'
p2483
tp2484
Rp2485
ag4
(g8
S'UUUUUU\xe9?'
p2486
tp2487
Rp2488
ag4
(g8
S'UUUUUU\xe9?'
p2489
tp2490
Rp2491
ag4
(g8
S'\x00\x00\x00\x00\x00\x00\xe8?'
p2492
tp2493
Rp2494
ag4
(g8
S'TUUUUU\xe7?'
p2495
tp2496
Rp2497
ag4
(g8
S'g\xa3\xbe\xb3Q\xdf\xe9?'
p2498
tp2499
Rp2500
ag4
(g8
S'g\xa3\xbe\xb3Q\xdf\xe9?'
p2501
tp2502
Rp2503
ag4
(g8
S'\xf0l\xd4w6\xea\xeb?'
p2504
tp2505
Rp2506
ag4
(g8
S'ffffff\xe6?'
p2507
tp2508
Rp2509
ag4
(g8
S'\x04/\xa7\xe0\xe5\x14\xec?'
p2510
tp2511
Rp2512
ag4
(g8
S'\x00\x00\x00\x00\x00\x00\xea?'
p2513
tp2514
Rp2515
ag4
(g8
S'\x00\x00\x00\x00\x00\x00\xe8?'
p2516
tp2517
Rp2518
ag4
(g8
S'\xaa\xaa\xaa\xaa\xaa\xaa\xe8?'
p2519
tp2520
Rp2521
ag4
(g8
S'\x00\x00\x00\x00\x00\x00\xea?'
p2522
tp2523
Rp2524
ag4
(g8
S'\x00\x00\x00\x00\x00\x00\xea?'
p2525
tp2526
Rp2527
ag4
(g8
S'ar\x051\xb9\x82\xe8?'
p2528
tp2529
Rp2530
ag4
(g8
S'\xea;\x1b\xf5\x9d\x8d\xea?'
p2531
tp2532
Rp2533
ag4
(g8
S'g\xa3\xbe\xb3Q\xdf\xe9?'
p2534
tp2535
Rp2536
ag4
(g8
S'\x9b\x99\x99\x99\x99\x99\xe9?'
p2537
tp2538
Rp2539
ag4
(g8
S'\x88\xc6\xfa\xd0X\x1f\xea?'
p2540
tp2541
Rp2542
ag4
(g8
S'TUUUUU\xe7?'
p2543
tp2544
Rp2545
ag4
(g8
S'\xab\xaa\xaa\xaa\xaa\xaa\xea?'
p2546
tp2547
Rp2548
ag4
(g8
S'\xab\xaa\xaa\xaa\xaa\xaa\xea?'
p2549
tp2550
Rp2551
ag4
(g8
S'\x00\x00\x00\x00\x00\x00\xec?'
p2552
tp2553
Rp2554
ag4
(g8
S'\x00\x00\x00\x00\x00\x00\xe6?'
p2555
tp2556
Rp2557
ag4
(g8
S'\xe5\nbr\x051\xe9?'
p2558
tp2559
Rp2560
ag4
(g8
S'W\x10\x93+\x88\xc9\xe5?'
p2561
tp2562
Rp2563
ag4
(g8
S'\xea;\x1b\xf5\x9d\x8d\xea?'
p2564
tp2565
Rp2566
ag4
(g8
S'=\n\xd7\xa3p=\xea?'
p2567
tp2568
Rp2569
ag4
(g8
S'^N\xc1\xcb)x\xe9?'
p2570
tp2571
Rp2572
ag4
(g8
S'\x00\x00\x00\x00\x00\x00\xe8?'
p2573
tp2574
Rp2575
ag4
(g8
S'\xab\xaa\xaa\xaa\xaa\xaa\xea?'
p2576
tp2577
Rp2578
ag4
(g8
S'\xab\xaa\xaa\xaa\xaa\xaa\xe6?'
p2579
tp2580
Rp2581
ag4
(g8
S'UUUUUU\xeb?'
p2582
tp2583
Rp2584
ag4
(g8
S'TUUUUU\xe7?'
p2585
tp2586
Rp2587
ag4
(g8
S']AL\xae &\xe7?'
p2588
tp2589
Rp2590
ag4
(g8
S'\xea;\x1b\xf5\x9d\x8d\xea?'
p2591
tp2592
Rp2593
ag4
(g8
S'\xea;\x1b\xf5\x9d\x8d\xea?'
p2594
tp2595
Rp2596
ag4
(g8
S'ffffff\xe6?'
p2597
tp2598
Rp2599
ag4
(g8
S'4\xd6\x87\xc6\xfa\xd0\xe8?'
p2600
tp2601
Rp2602
ag4
(g8
S'UUUUUU\xeb?'
p2603
tp2604
Rp2605
ag4
(g8
S'\x00\x00\x00\x00\x00\x00\xea?'
p2606
tp2607
Rp2608
ag4
(g8
S'\xaa\xaa\xaa\xaa\xaa\xaa\xe8?'
p2609
tp2610
Rp2611
ag4
(g8
S'\xaa\xaa\xaa\xaa\xaa\xaa\xe8?'
p2612
tp2613
Rp2614
ag4
(g8
S'UUUUUU\xeb?'
p2615
tp2616
Rp2617
ag4
(g8
S'\xe5\nbr\x051\xe9?'
p2618
tp2619
Rp2620
ag4
(g8
S'\xea;\x1b\xf5\x9d\x8d\xea?'
p2621
tp2622
Rp2623
ag4
(g8
S'ar\x051\xb9\x82\xe8?'
p2624
tp2625
Rp2626
aa(lp2627
g312
((lp2628
(lp2629
S'C'
p2630
aF21.738279773348278
aa(lp2631
S'kernel'
p2632
aS'rbf'
p2633
aa(lp2634
S'degree'
p2635
aI11
aatp2636
Rp2637
ag312
((lp2638
(lp2639
g2630
aF13.522987986828882
aa(lp2640
g2632
aS'poly'
p2641
aa(lp2642
g2635
aI4
aatp2643
Rp2644
ag312
((lp2645
(lp2646
g2630
aF90.15260301538721
aa(lp2647
g2632
aS'linear'
p2648
aa(lp2649
g2635
aI4
aatp2650
Rp2651
ag312
((lp2652
(lp2653
g2630
aF54.18710603207031
aa(lp2654
g2632
ag2633
aa(lp2655
g2635
aI2
aatp2656
Rp2657
ag312
((lp2658
(lp2659
g2630
aF65.19413797500401
aa(lp2660
g2632
ag2648
aa(lp2661
g2635
aI1
aatp2662
Rp2663
ag312
((lp2664
(lp2665
g2630
aF90.15260301538721
aa(lp2666
g2632
ag2633
aa(lp2667
g2635
aI5
aatp2668
Rp2669
ag312
((lp2670
(lp2671
g2630
aF2.9319129045484305
aa(lp2672
g2632
ag2633
aa(lp2673
g2635
aI20
aatp2674
Rp2675
ag312
((lp2676
(lp2677
g2630
aF90.15260301538721
aa(lp2678
g2632
ag2648
aa(lp2679
g2635
aI4
aatp2680
Rp2681
ag312
((lp2682
(lp2683
g2630
aF90.15260301538721
aa(lp2684
g2632
ag2648
aa(lp2685
g2635
aI4
aatp2686
Rp2687
ag312
((lp2688
(lp2689
g2630
aF90.15260301538721
aa(lp2690
g2632
aS'sigmoid'
p2691
aa(lp2692
g2635
aI7
aatp2693
Rp2694
ag312
((lp2695
(lp2696
g2630
aF2.9319129045484305
aa(lp2697
g2632
ag2691
aa(lp2698
g2635
aI7
aatp2699
Rp2700
ag312
((lp2701
(lp2702
g2630
aF21.738279773348278
aa(lp2703
g2632
ag2641
aa(lp2704
g2635
aI1
aatp2705
Rp2706
ag312
((lp2707
(lp2708
g2630
aF90.15260301538721
aa(lp2709
g2632
ag2633
aa(lp2710
g2635
aI5
aatp2711
Rp2712
ag312
((lp2713
(lp2714
g2630
aF2.9319129045484305
aa(lp2715
g2632
ag2641
aa(lp2716
g2635
aI4
aatp2717
Rp2718
ag312
((lp2719
(lp2720
g2630
aF25.58139567136823
aa(lp2721
g2632
ag2633
aa(lp2722
g2635
aI11
aatp2723
Rp2724
ag312
((lp2725
(lp2726
g2630
aF54.18710603207031
aa(lp2727
g2632
ag2633
aa(lp2728
g2635
aI2
aatp2729
Rp2730
ag312
((lp2731
(lp2732
g2630
aF90.15260301538721
aa(lp2733
g2632
ag2648
aa(lp2734
g2635
aI4
aatp2735
Rp2736
ag312
((lp2737
(lp2738
g2630
aF13.522987986828882
aa(lp2739
g2632
ag2641
aa(lp2740
g2635
aI4
aatp2741
Rp2742
ag312
((lp2743
(lp2744
g2630
aF13.522987986828882
aa(lp2745
g2632
ag2633
aa(lp2746
g2635
aI2
aatp2747
Rp2748
ag312
((lp2749
(lp2750
g2630
aF54.18710603207031
aa(lp2751
g2632
ag2633
aa(lp2752
g2635
aI2
aatp2753
Rp2754
ag312
((lp2755
(lp2756
g2630
aF54.18710603207031
aa(lp2757
g2632
ag2633
aa(lp2758
g2635
aI2
aatp2759
Rp2760
ag312
((lp2761
(lp2762
g2630
aF90.15260301538721
aa(lp2763
g2632
ag2648
aa(lp2764
g2635
aI4
aatp2765
Rp2766
ag312
((lp2767
(lp2768
g2630
aF13.522987986828882
aa(lp2769
g2632
ag2641
aa(lp2770
g2635
aI4
aatp2771
Rp2772
ag312
((lp2773
(lp2774
g2630
aF76.2517802375484
aa(lp2775
g2632
ag2648
aa(lp2776
g2635
aI9
aatp2777
Rp2778
ag312
((lp2779
(lp2780
g2630
aF21.738279773348278
aa(lp2781
g2632
ag2633
aa(lp2782
g2635
aI11
aatp2783
Rp2784
ag312
((lp2785
(lp2786
g2630
aF90.15260301538721
aa(lp2787
g2632
ag2648
aa(lp2788
g2635
aI4
aatp2789
Rp2790
ag312
((lp2791
(lp2792
g2630
aF2.9319129045484305
aa(lp2793
g2632
ag2648
aa(lp2794
g2635
aI15
aatp2795
Rp2796
ag312
((lp2797
(lp2798
g2630
aF2.9319129045484305
aa(lp2799
g2632
ag2633
aa(lp2800
g2635
aI20
aatp2801
Rp2802
ag312
((lp2803
(lp2804
g2630
aF2.9319129045484305
aa(lp2805
g2632
ag2633
aa(lp2806
g2635
aI11
aatp2807
Rp2808
ag312
((lp2809
(lp2810
g2630
aF54.18710603207031
aa(lp2811
g2632
ag2633
aa(lp2812
g2635
aI2
aatp2813
Rp2814
ag312
((lp2815
(lp2816
g2630
aF21.738279773348278
aa(lp2817
g2632
ag2633
aa(lp2818
g2635
aI11
aatp2819
Rp2820
ag312
((lp2821
(lp2822
g2630
aF90.15260301538721
aa(lp2823
g2632
ag2691
aa(lp2824
g2635
aI7
aatp2825
Rp2826
ag312
((lp2827
(lp2828
g2630
aF21.738279773348278
aa(lp2829
g2632
ag2641
aa(lp2830
g2635
aI1
aatp2831
Rp2832
ag312
((lp2833
(lp2834
g2630
aF90.15260301538721
aa(lp2835
g2632
ag2648
aa(lp2836
g2635
aI4
aatp2837
Rp2838
ag312
((lp2839
(lp2840
g2630
aF90.15260301538721
aa(lp2841
g2632
ag2648
aa(lp2842
g2635
aI4
aatp2843
Rp2844
ag312
((lp2845
(lp2846
g2630
aF2.9319129045484305
aa(lp2847
g2632
ag2633
aa(lp2848
g2635
aI11
aatp2849
Rp2850
ag312
((lp2851
(lp2852
g2630
aF90.15260301538721
aa(lp2853
g2632
ag2633
aa(lp2854
g2635
aI5
aatp2855
Rp2856
ag312
((lp2857
(lp2858
g2630
aF21.738279773348278
aa(lp2859
g2632
ag2641
aa(lp2860
g2635
aI1
aatp2861
Rp2862
ag312
((lp2863
(lp2864
g2630
aF13.522987986828882
aa(lp2865
g2632
ag2633
aa(lp2866
g2635
aI2
aatp2867
Rp2868
ag312
((lp2869
(lp2870
g2630
aF90.15260301538721
aa(lp2871
g2632
ag2648
aa(lp2872
g2635
aI4
aatp2873
Rp2874
ag312
((lp2875
(lp2876
g2630
aF54.18710603207031
aa(lp2877
g2632
ag2633
aa(lp2878
g2635
aI2
aatp2879
Rp2880
ag312
((lp2881
(lp2882
g2630
aF2.9319129045484305
aa(lp2883
g2632
ag2633
aa(lp2884
g2635
aI11
aatp2885
Rp2886
ag312
((lp2887
(lp2888
g2630
aF13.522987986828882
aa(lp2889
g2632
ag2641
aa(lp2890
g2635
aI4
aatp2891
Rp2892
ag312
((lp2893
(lp2894
g2630
aF72.18184923084418
aa(lp2895
g2632
ag2633
aa(lp2896
g2635
aI2
aatp2897
Rp2898
ag312
((lp2899
(lp2900
g2630
aF54.18710603207031
aa(lp2901
g2632
ag2633
aa(lp2902
g2635
aI2
aatp2903
Rp2904
ag312
((lp2905
(lp2906
g2630
aF54.18710603207031
aa(lp2907
g2632
ag2633
aa(lp2908
g2635
aI2
aatp2909
Rp2910
ag312
((lp2911
(lp2912
g2630
aF13.522987986828882
aa(lp2913
g2632
ag2691
aa(lp2914
g2635
aI7
aatp2915
Rp2916
ag312
((lp2917
(lp2918
g2630
aF90.15260301538721
aa(lp2919
g2632
ag2648
aa(lp2920
g2635
aI4
aatp2921
Rp2922
ag312
((lp2923
(lp2924
g2630
aF90.15260301538721
aa(lp2925
g2632
ag2641
aa(lp2926
g2635
aI4
aatp2927
Rp2928
ag312
((lp2929
(lp2930
g2630
aF90.15260301538721
aa(lp2931
g2632
ag2648
aa(lp2932
g2635
aI4
aatp2933
Rp2934
ag312
((lp2935
(lp2936
g2630
aF13.522987986828882
aa(lp2937
g2632
ag2641
aa(lp2938
g2635
aI4
aatp2939
Rp2940
ag312
((lp2941
(lp2942
g2630
aF54.18710603207031
aa(lp2943
g2632
ag2633
aa(lp2944
g2635
aI2
aatp2945
Rp2946
ag312
((lp2947
(lp2948
g2630
aF90.15260301538721
aa(lp2949
g2632
ag2648
aa(lp2950
g2635
aI4
aatp2951
Rp2952
ag312
((lp2953
(lp2954
g2630
aF21.738279773348278
aa(lp2955
g2632
ag2633
aa(lp2956
g2635
aI11
aatp2957
Rp2958
ag312
((lp2959
(lp2960
g2630
aF54.18710603207031
aa(lp2961
g2632
ag2633
aa(lp2962
g2635
aI2
aatp2963
Rp2964
ag312
((lp2965
(lp2966
g2630
aF2.9319129045484305
aa(lp2967
g2632
ag2691
aa(lp2968
g2635
aI7
aatp2969
Rp2970
ag312
((lp2971
(lp2972
g2630
aF72.18184923084418
aa(lp2973
g2632
ag2691
aa(lp2974
g2635
aI12
aatp2975
Rp2976
ag312
((lp2977
(lp2978
g2630
aF90.15260301538721
aa(lp2979
g2632
ag2648
aa(lp2980
g2635
aI4
aatp2981
Rp2982
ag312
((lp2983
(lp2984
g2630
aF90.15260301538721
aa(lp2985
g2632
ag2648
aa(lp2986
g2635
aI4
aatp2987
Rp2988
ag312
((lp2989
(lp2990
g2630
aF21.738279773348278
aa(lp2991
g2632
ag2633
aa(lp2992
g2635
aI11
aatp2993
Rp2994
ag312
((lp2995
(lp2996
g2630
aF2.9319129045484305
aa(lp2997
g2632
ag2691
aa(lp2998
g2635
aI7
aatp2999
Rp3000
ag312
((lp3001
(lp3002
g2630
aF21.738279773348278
aa(lp3003
g2632
ag2633
aa(lp3004
g2635
aI11
aatp3005
Rp3006
ag312
((lp3007
(lp3008
g2630
aF90.15260301538721
aa(lp3009
g2632
ag2633
aa(lp3010
g2635
aI5
aatp3011
Rp3012
ag312
((lp3013
(lp3014
g2630
aF2.9319129045484305
aa(lp3015
g2632
ag2633
aa(lp3016
g2635
aI20
aatp3017
Rp3018
ag312
((lp3019
(lp3020
g2630
aF90.15260301538721
aa(lp3021
g2632
ag2633
aa(lp3022
g2635
aI5
aatp3023
Rp3024
ag312
((lp3025
(lp3026
g2630
aF21.738279773348278
aa(lp3027
g2632
ag2633
aa(lp3028
g2635
aI11
aatp3029
Rp3030
ag312
((lp3031
(lp3032
g2630
aF13.522987986828882
aa(lp3033
g2632
ag2633
aa(lp3034
g2635
aI2
aatp3035
Rp3036
ag312
((lp3037
(lp3038
g2630
aF13.522987986828882
aa(lp3039
g2632
ag2691
aa(lp3040
g2635
aI7
aatp3041
Rp3042
ag312
((lp3043
(lp3044
g2630
aF21.738279773348278
aa(lp3045
g2632
ag2641
aa(lp3046
g2635
aI1
aatp3047
Rp3048
ag312
((lp3049
(lp3050
g2630
aF21.738279773348278
aa(lp3051
g2632
ag2633
aa(lp3052
g2635
aI11
aatp3053
Rp3054
ag312
((lp3055
(lp3056
g2630
aF65.19413797500401
aa(lp3057
g2632
ag2648
aa(lp3058
g2635
aI1
aatp3059
Rp3060
ag312
((lp3061
(lp3062
g2630
aF90.15260301538721
aa(lp3063
g2632
ag2648
aa(lp3064
g2635
aI4
aatp3065
Rp3066
ag312
((lp3067
(lp3068
g2630
aF54.18710603207031
aa(lp3069
g2632
ag2633
aa(lp3070
g2635
aI2
aatp3071
Rp3072
ag312
((lp3073
(lp3074
g2630
aF21.738279773348278
aa(lp3075
g2632
ag2641
aa(lp3076
g2635
aI1
aatp3077
Rp3078
ag312
((lp3079
(lp3080
g2630
aF90.15260301538721
aa(lp3081
g2632
ag2641
aa(lp3082
g2635
aI4
aatp3083
Rp3084
ag312
((lp3085
(lp3086
g2630
aF90.15260301538721
aa(lp3087
g2632
ag2648
aa(lp3088
g2635
aI4
aatp3089
Rp3090
ag312
((lp3091
(lp3092
g2630
aF13.522987986828882
aa(lp3093
g2632
ag2641
aa(lp3094
g2635
aI4
aatp3095
Rp3096
ag312
((lp3097
(lp3098
g2630
aF2.9319129045484305
aa(lp3099
g2632
ag2633
aa(lp3100
g2635
aI11
aatp3101
Rp3102
ag312
((lp3103
(lp3104
g2630
aF90.15260301538721
aa(lp3105
g2632
ag2691
aa(lp3106
g2635
aI7
aatp3107
Rp3108
ag312
((lp3109
(lp3110
g2630
aF13.522987986828882
aa(lp3111
g2632
ag2641
aa(lp3112
g2635
aI4
aatp3113
Rp3114
ag312
((lp3115
(lp3116
g2630
aF54.18710603207031
aa(lp3117
g2632
ag2633
aa(lp3118
g2635
aI2
aatp3119
Rp3120
ag312
((lp3121
(lp3122
g2630
aF21.738279773348278
aa(lp3123
g2632
ag2691
aa(lp3124
g2635
aI20
aatp3125
Rp3126
ag312
((lp3127
(lp3128
g2630
aF90.15260301538721
aa(lp3129
g2632
ag2648
aa(lp3130
g2635
aI4
aatp3131
Rp3132
ag312
((lp3133
(lp3134
g2630
aF13.522987986828882
aa(lp3135
g2632
ag2641
aa(lp3136
g2635
aI4
aatp3137
Rp3138
ag312
((lp3139
(lp3140
g2630
aF25.58139567136823
aa(lp3141
g2632
ag2633
aa(lp3142
g2635
aI11
aatp3143
Rp3144
ag312
((lp3145
(lp3146
g2630
aF72.18184923084418
aa(lp3147
g2632
ag2633
aa(lp3148
g2635
aI2
aatp3149
Rp3150
ag312
((lp3151
(lp3152
g2630
aF90.15260301538721
aa(lp3153
g2632
ag2691
aa(lp3154
g2635
aI7
aatp3155
Rp3156
ag312
((lp3157
(lp3158
g2630
aF90.15260301538721
aa(lp3159
g2632
ag2648
aa(lp3160
g2635
aI4
aatp3161
Rp3162
ag312
((lp3163
(lp3164
g2630
aF54.18710603207031
aa(lp3165
g2632
ag2633
aa(lp3166
g2635
aI2
aatp3167
Rp3168
ag312
((lp3169
(lp3170
g2630
aF13.522987986828882
aa(lp3171
g2632
ag2633
aa(lp3172
g2635
aI2
aatp3173
Rp3174
ag312
((lp3175
(lp3176
g2630
aF90.15260301538721
aa(lp3177
g2632
ag2633
aa(lp3178
g2635
aI5
aatp3179
Rp3180
ag312
((lp3181
(lp3182
g2630
aF90.15260301538721
aa(lp3183
g2632
ag2641
aa(lp3184
g2635
aI4
aatp3185
Rp3186
ag312
((lp3187
(lp3188
g2630
aF54.18710603207031
aa(lp3189
g2632
ag2691
aa(lp3190
g2635
aI8
aatp3191
Rp3192
ag312
((lp3193
(lp3194
g2630
aF13.522987986828882
aa(lp3195
g2632
ag2633
aa(lp3196
g2635
aI2
aatp3197
Rp3198
ag312
((lp3199
(lp3200
g2630
aF21.738279773348278
aa(lp3201
g2632
ag2641
aa(lp3202
g2635
aI1
aatp3203
Rp3204
ag312
((lp3205
(lp3206
g2630
aF90.15260301538721
aa(lp3207
g2632
ag2641
aa(lp3208
g2635
aI4
aatp3209
Rp3210
ag312
((lp3211
(lp3212
g2630
aF90.15260301538721
aa(lp3213
g2632
ag2648
aa(lp3214
g2635
aI4
aatp3215
Rp3216
ag312
((lp3217
(lp3218
g2630
aF90.15260301538721
aa(lp3219
g2632
ag2648
aa(lp3220
g2635
aI4
aatp3221
Rp3222
ag312
((lp3223
(lp3224
g2630
aF13.522987986828882
aa(lp3225
g2632
ag2641
aa(lp3226
g2635
aI4
aatp3227
Rp3228
ag312
((lp3229
(lp3230
g2630
aF90.15260301538721
aa(lp3231
g2632
ag2648
aa(lp3232
g2635
aI4
aatp3233
Rp3234
aaF527.6477289199829
as.