(dp0
S'run_dectreeclas'
p1
(lp2
(lp3
cnumpy.core.multiarray
scalar
p4
(cnumpy
dtype
p5
(S'f8'
p6
I0
I1
tp7
Rp8
(I3
S'<'
p9
NNNI-1
I-1
I0
tp10
bS'Q\xbb\x12\xb5+Q\xeb?'
p11
tp12
Rp13
ag4
(g8
S'\xe1|\x0c\xce\xc7\xe0\xec?'
p14
tp15
Rp16
ag4
(g8
S'\xb5+Q\xbb\x12\xb5\xeb?'
p17
tp18
Rp19
ag4
(g8
S'\xa9]\x89\xda\x95\xa8\xed?'
p20
tp21
Rp22
ag4
(g8
S'}\x0c\xce\xc7\xe0|\xec?'
p23
tp24
Rp25
ag4
(g8
S'\xa9]\x89\xda\x95\xa8\xed?'
p26
tp27
Rp28
ag4
(g8
S'X\xa4\x0c<\xdd\x9a\xef?'
p29
tp30
Rp31
ag4
(g8
S'\xb1H\x19x\xba5\xef?'
p32
tp33
Rp34
ag4
(g8
S'\x9a\x99\x99\x99\x99\x99\xed?'
p35
tp36
Rp37
ag4
(g8
S'gfffff\xee?'
p38
tp39
Rp40
aa(lp41
ccollections
OrderedDict
p42
((lp43
(lp44
S'max_features'
p45
aF0.9926179780543045
aa(lp46
S'min_samples_split'
p47
aI18
aa(lp48
S'min_impurity_split'
p49
aF0.12088995980580641
aa(lp50
S'max_depth'
p51
aI14
aa(lp52
S'min_samples_leaf'
p53
aI25
aatp54
Rp55
ag42
((lp56
(lp57
g45
aF0.9926179780543045
aa(lp58
g47
aI20
aa(lp59
g49
aF0.12088995980580641
aa(lp60
g51
aI12
aa(lp61
g53
aI9
aatp62
Rp63
ag42
((lp64
(lp65
g45
aF0.9926179780543045
aa(lp66
g47
aI18
aa(lp67
g49
aF0.12088995980580641
aa(lp68
g51
aI7
aa(lp69
g53
aI37
aatp70
Rp71
ag42
((lp72
(lp73
g45
aF0.9926179780543045
aa(lp74
g47
aI12
aa(lp75
g49
aF0.12088995980580641
aa(lp76
g51
aI5
aa(lp77
g53
aI5
aatp78
Rp79
ag42
((lp80
(lp81
g45
aF0.42789540982689017
aa(lp82
g47
aI11
aa(lp83
g49
aF0.22169166627303505
aa(lp84
g51
aI12
aa(lp85
g53
aI2
aatp86
Rp87
ag42
((lp88
(lp89
g45
aF0.42789540982689017
aa(lp90
g47
aI2
aa(lp91
g49
aF0.22169166627303505
aa(lp92
g51
aI9
aa(lp93
g53
aI25
aatp94
Rp95
ag42
((lp96
(lp97
g45
aF0.9926179780543045
aa(lp98
g47
aI12
aa(lp99
g49
aF0.12088995980580641
aa(lp100
g51
aI5
aa(lp101
g53
aI5
aatp102
Rp103
ag42
((lp104
(lp105
g45
aF0.9926179780543045
aa(lp106
g47
aI20
aa(lp107
g49
aF0.12088995980580641
aa(lp108
g51
aI12
aa(lp109
g53
aI9
aatp110
Rp111
ag42
((lp112
(lp113
g45
aF0.9926179780543045
aa(lp114
g47
aI12
aa(lp115
g49
aF0.12088995980580641
aa(lp116
g51
aI5
aa(lp117
g53
aI5
aatp118
Rp119
ag42
((lp120
(lp121
g45
aF0.9926179780543045
aa(lp122
g47
aI20
aa(lp123
g49
aF0.12088995980580641
aa(lp124
g51
aI12
aa(lp125
g53
aI9
aatp126
Rp127
aaF6.884852886199951
asS'run_rfclas'
p128
(lp129
(lp130
g4
(g8
S'\x19\x9c\x8f\xc1\xf9\x18\xec?'
p131
tp132
Rp133
ag4
(g8
S'\xe1|\x0c\xce\xc7\xe0\xec?'
p134
tp135
Rp136
ag4
(g8
S'\xb5+Q\xbb\x12\xb5\xeb?'
p137
tp138
Rp139
ag4
(g8
S'E\xedJ\xd4\xaeD\xed?'
p140
tp141
Rp142
ag4
(g8
S'}\x0c\xce\xc7\xe0|\xec?'
p143
tp144
Rp145
ag4
(g8
S'\xa9]\x89\xda\x95\xa8\xed?'
p146
tp147
Rp148
ag4
(g8
S'\xba5?,R\x06\xee?'
p149
tp150
Rp151
ag4
(g8
S'b\x912\xf0tk\xee?'
p152
tp153
Rp154
ag4
(g8
S'333333\xed?'
p155
tp156
Rp157
ag4
(g8
S'\x9a\x99\x99\x99\x99\x99\xed?'
p158
tp159
Rp160
aa(lp161
g42
((lp162
(lp163
g45
aF0.7646572816333626
aa(lp164
g47
aI7
aa(lp165
S'max_leaf_nodes'
p166
aI45
aa(lp167
g53
aI12
aa(lp168
g49
aF0.22876222127045265
aa(lp169
S'n_estimators'
p170
aI97
aatp171
Rp172
ag42
((lp173
(lp174
g45
aF0.7646572816333626
aa(lp175
g47
aI2
aa(lp176
g166
aI23
aa(lp177
g53
aI15
aa(lp178
g49
aF0.22876222127045265
aa(lp179
g170
aI98
aatp180
Rp181
ag42
((lp182
(lp183
g45
aF0.7646572816333626
aa(lp184
g47
aI18
aa(lp185
g166
aI46
aa(lp186
g53
aI1
aa(lp187
g49
aF0.22876222127045265
aa(lp188
g170
aI60
aatp189
Rp190
ag42
((lp191
(lp192
g45
aF0.7646572816333626
aa(lp193
g47
aI4
aa(lp194
g166
aI10
aa(lp195
g53
aI5
aa(lp196
g49
aF0.22876222127045265
aa(lp197
g170
aI87
aatp198
Rp199
ag42
((lp200
(lp201
g45
aF0.7646572816333626
aa(lp202
g47
aI4
aa(lp203
g166
aI10
aa(lp204
g53
aI5
aa(lp205
g49
aF0.22876222127045265
aa(lp206
g170
aI87
aatp207
Rp208
ag42
((lp209
(lp210
g45
aF0.7646572816333626
aa(lp211
g47
aI4
aa(lp212
g166
aI10
aa(lp213
g53
aI5
aa(lp214
g49
aF0.22876222127045265
aa(lp215
g170
aI87
aatp216
Rp217
ag42
((lp218
(lp219
g45
aF0.7646572816333626
aa(lp220
g47
aI18
aa(lp221
g166
aI46
aa(lp222
g53
aI1
aa(lp223
g49
aF0.22876222127045265
aa(lp224
g170
aI60
aatp225
Rp226
ag42
((lp227
(lp228
g45
aF0.7646572816333626
aa(lp229
g47
aI4
aa(lp230
g166
aI10
aa(lp231
g53
aI5
aa(lp232
g49
aF0.22876222127045265
aa(lp233
g170
aI87
aatp234
Rp235
ag42
((lp236
(lp237
g45
aF0.7646572816333626
aa(lp238
g47
aI18
aa(lp239
g166
aI46
aa(lp240
g53
aI1
aa(lp241
g49
aF0.22876222127045265
aa(lp242
g170
aI60
aatp243
Rp244
ag42
((lp245
(lp246
g45
aF0.7646572816333626
aa(lp247
g47
aI4
aa(lp248
g166
aI10
aa(lp249
g53
aI5
aa(lp250
g49
aF0.22876222127045265
aa(lp251
g170
aI87
aatp252
Rp253
aaF290.3878901004791
asS'run_svmclas'
p254
(lp255
(lp256
g4
(g8
S'\xedJ\xd4\xaeD\xed\xea?'
p257
tp258
Rp259
ag4
(g8
S'\x0c\xce\xc7\xe0|\x0c\xee?'
p260
tp261
Rp262
ag4
(g8
S'\xd4\xaeD\xedJ\xd4\xee?'
p263
tp264
Rp265
ag4
(g8
S'p>\x06\xe7cp\xee?'
p266
tp267
Rp268
ag4
(g8
S'Q\xbb\x12\xb5+Q\xeb?'
p269
tp270
Rp271
ag4
(g8
S'8\x1f\x83\xf318\xef?'
p272
tp273
Rp274
ag4
(g8
S'X\xa4\x0c<\xdd\x9a\xef?'
p275
tp276
Rp277
ag4
(g8
S'X\xa4\x0c<\xdd\x9a\xef?'
p278
tp279
Rp280
ag4
(g8
S'\x9a\x99\x99\x99\x99\x99\xef?'
p281
tp282
Rp283
ag4
(g8
S'\x9a\x99\x99\x99\x99\x99\xef?'
p284
tp285
Rp286
aa(lp287
g42
((lp288
(lp289
S'C'
p290
aF13.522987986828882
aa(lp291
S'kernel'
p292
aS'poly'
p293
aa(lp294
S'degree'
p295
aI4
aatp296
Rp297
ag42
((lp298
(lp299
g290
aF90.15260301538721
aa(lp300
g292
ag293
aa(lp301
g295
aI4
aatp302
Rp303
ag42
((lp304
(lp305
g290
aF90.15260301538721
aa(lp306
g292
aS'rbf'
p307
aa(lp308
g295
aI5
aatp309
Rp310
ag42
((lp311
(lp312
g290
aF90.15260301538721
aa(lp313
g292
ag293
aa(lp314
g295
aI4
aatp315
Rp316
ag42
((lp317
(lp318
g290
aF72.18184923084418
aa(lp319
g292
ag307
aa(lp320
g295
aI2
aatp321
Rp322
ag42
((lp323
(lp324
g290
aF90.15260301538721
aa(lp325
g292
ag307
aa(lp326
g295
aI5
aatp327
Rp328
ag42
((lp329
(lp330
g290
aF90.15260301538721
aa(lp331
g292
aS'linear'
p332
aa(lp333
g295
aI4
aatp334
Rp335
ag42
((lp336
(lp337
g290
aF65.19413797500401
aa(lp338
g292
ag307
aa(lp339
g295
aI5
aatp340
Rp341
ag42
((lp342
(lp343
g290
aF90.15260301538721
aa(lp344
g292
ag332
aa(lp345
g295
aI4
aatp346
Rp347
ag42
((lp348
(lp349
g290
aF54.18710603207031
aa(lp350
g292
ag307
aa(lp351
g295
aI2
aatp352
Rp353
aaF114.03693413734436
as.