(dp0
S'run_svmreg'
p1
(lp2
(lp3
cnumpy.core.multiarray
scalar
p4
(cnumpy
dtype
p5
(S'f8'
p6
I0
I1
tp7
Rp8
(I3
S'<'
p9
NNNI-1
I-1
I0
tp10
bS'r\x8c\x00\xd9\x00\xa0\x0b@'
p11
tp12
Rp13
ag4
(g8
S'|]\xa1\x84CB\xf9?'
p14
tp15
Rp16
ag4
(g8
S'\x84\xa5\xe3-,\xa7\x07@'
p17
tp18
Rp19
ag4
(g8
S'\xd8\xbeE=[\xd8\x04@'
p20
tp21
Rp22
ag4
(g8
S'\x95G\x83\xe0\xe1\xee\x07@'
p23
tp24
Rp25
ag4
(g8
S'n\xe0\xd4\x92\xc4:\x0b@'
p26
tp27
Rp28
ag4
(g8
S'-\xad\x1b:jx\xf9?'
p29
tp30
Rp31
ag4
(g8
S'\xdc\xe6\xa6\x84,+\xfc?'
p32
tp33
Rp34
ag4
(g8
S'\\\x05))2j\x0c@'
p35
tp36
Rp37
ag4
(g8
S'\x05P`\xea\xd1\xac\x07@'
p38
tp39
Rp40
ag4
(g8
S'\xaf)54\x89\x01\x08@'
p41
tp42
Rp43
ag4
(g8
S'S\xc1f\xc0\x87\xbb\n@'
p44
tp45
Rp46
ag4
(g8
S']\x85\x08\xef?\x9f\x04@'
p47
tp48
Rp49
ag4
(g8
S'%\x94@>\xfb_\xf6?'
p50
tp51
Rp52
ag4
(g8
S'\xfbh\x04\xf9\x91\xca\r@'
p53
tp54
Rp55
ag4
(g8
S'\\\xd5\xb7&j\x02\x08@'
p56
tp57
Rp58
ag4
(g8
S' m=\x80\xeb\xa1\x00@'
p59
tp60
Rp61
ag4
(g8
S'\xd3{b9\xfe\xc5\x02@'
p62
tp63
Rp64
ag4
(g8
S'\x14\xea?\xd1\xe9o\x0b@'
p65
tp66
Rp67
ag4
(g8
S'6f\x000 \x9d\xfe?'
p68
tp69
Rp70
ag4
(g8
S'\x0c\xd02Q\xd3\x9a\x03@'
p71
tp72
Rp73
ag4
(g8
S'\x82\xf6\x98\xbd\x17\x06\x03@'
p74
tp75
Rp76
ag4
(g8
S'\xcd\x7f\xeb-^\x12\x07@'
p77
tp78
Rp79
ag4
(g8
S'\x7fuh\xd1!\x14\xfa?'
p80
tp81
Rp82
ag4
(g8
S'\x93r\xfce:f\x02@'
p83
tp84
Rp85
ag4
(g8
S'\x1c\x83h\xcb\x9d\xda\x03@'
p86
tp87
Rp88
ag4
(g8
S'\xb6\xa1\x9c3\x85e\x02@'
p89
tp90
Rp91
ag4
(g8
S'\xae\xb2g:\xed\xaa\xff?'
p92
tp93
Rp94
ag4
(g8
S'\xc3/m\x91\xd8\x0c\x05@'
p95
tp96
Rp97
ag4
(g8
S'\xc2\xb1\x00bCV\x0c@'
p98
tp99
Rp100
ag4
(g8
S'\xa3\x9f[\x95\xc6\xac\x0c@'
p101
tp102
Rp103
ag4
(g8
S'R\x82T\xc9\xc2 \xfb?'
p104
tp105
Rp106
ag4
(g8
S'\xa7^\xf2:g\x8c\x08@'
p107
tp108
Rp109
ag4
(g8
S'w\xb1\x85F#m\xfd?'
p110
tp111
Rp112
ag4
(g8
S'\xda\xf8\xbaCU\x17\x02@'
p113
tp114
Rp115
ag4
(g8
S'\x8c\xee\xe74\xee1\x07@'
p116
tp117
Rp118
ag4
(g8
S'\xd0]Nm\n4\x02@'
p119
tp120
Rp121
ag4
(g8
S'\xdeM\xd7\xd9~\x08\x01@'
p122
tp123
Rp124
ag4
(g8
S'\xe3\x03;k;\x97\x02@'
p125
tp126
Rp127
ag4
(g8
S'\x87\xea\xed\xfb\xbeu\x06@'
p128
tp129
Rp130
ag4
(g8
S'f\x00\x12F\xb7\xd2\x03@'
p131
tp132
Rp133
ag4
(g8
S'*\xbc\x95\x9d\xd0\xe3\x03@'
p134
tp135
Rp136
ag4
(g8
S'\xe0G\xb2\xfa\xd2\xe5\r@'
p137
tp138
Rp139
ag4
(g8
S'7\xc7\xf9\x0b\x16\xee\x0c@'
p140
tp141
Rp142
ag4
(g8
S'[\x0bF\x88^\xb5\x03@'
p143
tp144
Rp145
ag4
(g8
S'\xea\x90\xdb\xfe\x1dc\x0c@'
p146
tp147
Rp148
ag4
(g8
S'\xda!2\x8cBI\x0f@'
p149
tp150
Rp151
ag4
(g8
S'\xfa\xa4\xe2\x01_0\xfe?'
p152
tp153
Rp154
ag4
(g8
S'\x92\xe9\x1e\xc52\x0f\xf2?'
p155
tp156
Rp157
ag4
(g8
S'\x0b\x8e-\xb9\x11o\xff?'
p158
tp159
Rp160
ag4
(g8
S'x\xd8\xf4\xf1J\x95\x08@'
p161
tp162
Rp163
ag4
(g8
S'P\xc9\x98n\x1dQ\xfa?'
p164
tp165
Rp166
ag4
(g8
S'*\x8c\xc8\x98\x86\xfd\xff?'
p167
tp168
Rp169
ag4
(g8
S'1\xae\xc9\x9a\x85\x0b\x07@'
p170
tp171
Rp172
ag4
(g8
S'\x8d\xcb\xe9L\x83\xe5\x0b@'
p173
tp174
Rp175
ag4
(g8
S'\xcaq>\xc9\x03\x90\x04@'
p176
tp177
Rp178
ag4
(g8
S'\xad$jc\xbb\xa3\x04@'
p179
tp180
Rp181
ag4
(g8
S'\n\x88$k\xd3#\xff?'
p182
tp183
Rp184
ag4
(g8
S'\xbd\x83Z\\\xbf\xee\xff?'
p185
tp186
Rp187
ag4
(g8
S'8\xb6o\xe57e\x06@'
p188
tp189
Rp190
ag4
(g8
S'\x93\x86\xc5\x17\xb92\x02@'
p191
tp192
Rp193
ag4
(g8
S'\x02\xfaO\x98\x04L\t@'
p194
tp195
Rp196
ag4
(g8
S'8s\x9c_\xe4j\x02@'
p197
tp198
Rp199
ag4
(g8
S'\xd3%\xb3\x89\xf0\xb5\x0b@'
p200
tp201
Rp202
ag4
(g8
S'\xb4\x97\x944\xbf!\t@'
p203
tp204
Rp205
ag4
(g8
S'\x07\xa6>\x1e\xf2\xc9\x04@'
p206
tp207
Rp208
ag4
(g8
S'r\x862Z\x7fL\x04@'
p209
tp210
Rp211
ag4
(g8
S'\xd3d@\xa9g\xc1\x05@'
p212
tp213
Rp214
ag4
(g8
S'L\xb0\xaa\xc7\xf1N\xf8?'
p215
tp216
Rp217
ag4
(g8
S'\x82\xcdV\x00\x17;\x00@'
p218
tp219
Rp220
ag4
(g8
S'\x06C\xda\x8a\xcb\xd5\x01@'
p221
tp222
Rp223
ag4
(g8
S'~\xc9\xaf\xeeG\x9e\r@'
p224
tp225
Rp226
ag4
(g8
S'b\xea+x\x8d<\x08@'
p227
tp228
Rp229
ag4
(g8
S'\xe1\x87T\x06\xa9M\x0b@'
p230
tp231
Rp232
ag4
(g8
S'\xb5\xf5^\xe5cU\x02@'
p233
tp234
Rp235
ag4
(g8
S'[\xa8g(\x98\xa6\x04@'
p236
tp237
Rp238
ag4
(g8
S'Ur\xe7\x97k\x80\x02@'
p239
tp240
Rp241
ag4
(g8
S'\x12\xfb\xf9\xda\xe6\xc3\x01@'
p242
tp243
Rp244
ag4
(g8
S"\xa3\xec\x03'^\\\x07@"
p245
tp246
Rp247
ag4
(g8
S'IU\x1c\x1e\xb2z\x02@'
p248
tp249
Rp250
ag4
(g8
S'\xf5e\x87\x85t\x1a\t@'
p251
tp252
Rp253
ag4
(g8
S'\xae\xb7\xa6\xa2-\x13\x0e@'
p254
tp255
Rp256
ag4
(g8
S'|\xd5\xe0\xb0 \xe0\x05@'
p257
tp258
Rp259
ag4
(g8
S'\x83W\x96,b2\x0b@'
p260
tp261
Rp262
ag4
(g8
S'\xf6\xda\xe9\xdd4!\xfb?'
p263
tp264
Rp265
ag4
(g8
S'*\x12\xe1\xc4A\xe3\xfa?'
p266
tp267
Rp268
ag4
(g8
S'\xceQ\xe6\xfd\xd11\x01@'
p269
tp270
Rp271
ag4
(g8
S'\xefsdy6f\x06@'
p272
tp273
Rp274
ag4
(g8
S'\x1f\xbd\xe6\x15q%\xff?'
p275
tp276
Rp277
ag4
(g8
S'\xb2\xaa\x9c\x0ff\x1b\x07@'
p278
tp279
Rp280
ag4
(g8
S'\xf0\xdaT>\xa3h\x07@'
p281
tp282
Rp283
ag4
(g8
S'\xf1\x02\xae.!\xbb\xf6?'
p284
tp285
Rp286
ag4
(g8
S'\x1c\xc1|\xfcO\x97\x04@'
p287
tp288
Rp289
ag4
(g8
S'\xa5\x83l9\xc3~\x05@'
p290
tp291
Rp292
ag4
(g8
S'\x0f\xaa\t0\x9f\xed\xf9?'
p293
tp294
Rp295
ag4
(g8
S'h\xa1\x12\x91\xaf\xe2\x08@'
p296
tp297
Rp298
ag4
(g8
S'\x97\xfd\xce{\xb7_\r@'
p299
tp300
Rp301
ag4
(g8
S'cs`K\xa7>\x08@'
p302
tp303
Rp304
ag4
(g8
S'i\xa2bz8\x7f\x08@'
p305
tp306
Rp307
ag4
(g8
S'\x97\x1b\xd8%\xed\x04\xf5?'
p308
tp309
Rp310
aa(lp311
ccollections
OrderedDict
p312
((lp313
(lp314
S'C'
p315
aF65.19413797500401
aa(lp316
S'kernel'
p317
aS'linear'
p318
aa(lp319
S'degree'
p320
aI1
aatp321
Rp322
ag312
((lp323
(lp324
g315
aF21.738279773348278
aa(lp325
g317
aS'poly'
p326
aa(lp327
g320
aI1
aatp328
Rp329
ag312
((lp330
(lp331
g315
aF65.19413797500401
aa(lp332
g317
ag318
aa(lp333
g320
aI1
aatp334
Rp335
ag312
((lp336
(lp337
g315
aF90.15260301538721
aa(lp338
g317
ag318
aa(lp339
g320
aI4
aatp340
Rp341
ag312
((lp342
(lp343
g315
aF72.18184923084418
aa(lp344
g317
ag318
aa(lp345
g320
aI6
aatp346
Rp347
ag312
((lp348
(lp349
g315
aF72.18184923084418
aa(lp350
g317
ag318
aa(lp351
g320
aI6
aatp352
Rp353
ag312
((lp354
(lp355
g315
aF65.19413797500401
aa(lp356
g317
ag326
aa(lp357
g320
aI1
aatp358
Rp359
ag312
((lp360
(lp361
g315
aF76.2517802375484
aa(lp362
g317
ag318
aa(lp363
g320
aI9
aatp364
Rp365
ag312
((lp366
(lp367
g315
aF65.19413797500401
aa(lp368
g317
ag326
aa(lp369
g320
aI1
aatp370
Rp371
ag312
((lp372
(lp373
g315
aF65.19413797500401
aa(lp374
g317
ag326
aa(lp375
g320
aI1
aatp376
Rp377
ag312
((lp378
(lp379
g315
aF76.2517802375484
aa(lp380
g317
ag318
aa(lp381
g320
aI9
aatp382
Rp383
ag312
((lp384
(lp385
g315
aF76.2517802375484
aa(lp386
g317
ag318
aa(lp387
g320
aI9
aatp388
Rp389
ag312
((lp390
(lp391
g315
aF90.15260301538721
aa(lp392
g317
ag318
aa(lp393
g320
aI4
aatp394
Rp395
ag312
((lp396
(lp397
g315
aF65.19413797500401
aa(lp398
g317
ag326
aa(lp399
g320
aI1
aatp400
Rp401
ag312
((lp402
(lp403
g315
aF76.2517802375484
aa(lp404
g317
ag318
aa(lp405
g320
aI9
aatp406
Rp407
ag312
((lp408
(lp409
g315
aF90.15260301538721
aa(lp410
g317
ag318
aa(lp411
g320
aI4
aatp412
Rp413
ag312
((lp414
(lp415
g315
aF2.9319129045484305
aa(lp416
g317
ag318
aa(lp417
g320
aI15
aatp418
Rp419
ag312
((lp420
(lp421
g315
aF65.19413797500401
aa(lp422
g317
ag318
aa(lp423
g320
aI1
aatp424
Rp425
ag312
((lp426
(lp427
g315
aF76.2517802375484
aa(lp428
g317
ag318
aa(lp429
g320
aI9
aatp430
Rp431
ag312
((lp432
(lp433
g315
aF90.15260301538721
aa(lp434
g317
ag318
aa(lp435
g320
aI4
aatp436
Rp437
ag312
((lp438
(lp439
g315
aF2.9319129045484305
aa(lp440
g317
ag318
aa(lp441
g320
aI15
aatp442
Rp443
ag312
((lp444
(lp445
g315
aF90.15260301538721
aa(lp446
g317
ag318
aa(lp447
g320
aI4
aatp448
Rp449
ag312
((lp450
(lp451
g315
aF76.2517802375484
aa(lp452
g317
ag318
aa(lp453
g320
aI9
aatp454
Rp455
ag312
((lp456
(lp457
g315
aF21.738279773348278
aa(lp458
g317
ag326
aa(lp459
g320
aI1
aatp460
Rp461
ag312
((lp462
(lp463
g315
aF72.18184923084418
aa(lp464
g317
ag318
aa(lp465
g320
aI6
aatp466
Rp467
ag312
((lp468
(lp469
g315
aF65.19413797500401
aa(lp470
g317
ag318
aa(lp471
g320
aI1
aatp472
Rp473
ag312
((lp474
(lp475
g315
aF72.18184923084418
aa(lp476
g317
ag318
aa(lp477
g320
aI6
aatp478
Rp479
ag312
((lp480
(lp481
g315
aF90.15260301538721
aa(lp482
g317
ag318
aa(lp483
g320
aI4
aatp484
Rp485
ag312
((lp486
(lp487
g315
aF65.19413797500401
aa(lp488
g317
ag318
aa(lp489
g320
aI1
aatp490
Rp491
ag312
((lp492
(lp493
g315
aF65.19413797500401
aa(lp494
g317
ag318
aa(lp495
g320
aI1
aatp496
Rp497
ag312
((lp498
(lp499
g315
aF72.18184923084418
aa(lp500
g317
ag318
aa(lp501
g320
aI6
aatp502
Rp503
ag312
((lp504
(lp505
g315
aF21.738279773348278
aa(lp506
g317
ag326
aa(lp507
g320
aI1
aatp508
Rp509
ag312
((lp510
(lp511
g315
aF72.18184923084418
aa(lp512
g317
ag318
aa(lp513
g320
aI6
aatp514
Rp515
ag312
((lp516
(lp517
g315
aF65.19413797500401
aa(lp518
g317
ag326
aa(lp519
g320
aI1
aatp520
Rp521
ag312
((lp522
(lp523
g315
aF76.2517802375484
aa(lp524
g317
ag318
aa(lp525
g320
aI9
aatp526
Rp527
ag312
((lp528
(lp529
g315
aF65.19413797500401
aa(lp530
g317
ag326
aa(lp531
g320
aI1
aatp532
Rp533
ag312
((lp534
(lp535
g315
aF2.9319129045484305
aa(lp536
g317
ag318
aa(lp537
g320
aI15
aatp538
Rp539
ag312
((lp540
(lp541
g315
aF72.18184923084418
aa(lp542
g317
ag318
aa(lp543
g320
aI6
aatp544
Rp545
ag312
((lp546
(lp547
g315
aF2.9319129045484305
aa(lp548
g317
ag318
aa(lp549
g320
aI15
aatp550
Rp551
ag312
((lp552
(lp553
g315
aF72.18184923084418
aa(lp554
g317
ag318
aa(lp555
g320
aI6
aatp556
Rp557
ag312
((lp558
(lp559
g315
aF21.738279773348278
aa(lp560
g317
ag326
aa(lp561
g320
aI1
aatp562
Rp563
ag312
((lp564
(lp565
g315
aF65.19413797500401
aa(lp566
g317
ag326
aa(lp567
g320
aI1
aatp568
Rp569
ag312
((lp570
(lp571
g315
aF76.2517802375484
aa(lp572
g317
ag318
aa(lp573
g320
aI9
aatp574
Rp575
ag312
((lp576
(lp577
g315
aF2.9319129045484305
aa(lp578
g317
ag318
aa(lp579
g320
aI15
aatp580
Rp581
ag312
((lp582
(lp583
g315
aF2.9319129045484305
aa(lp584
g317
ag318
aa(lp585
g320
aI15
aatp586
Rp587
ag312
((lp588
(lp589
g315
aF76.2517802375484
aa(lp590
g317
ag318
aa(lp591
g320
aI9
aatp592
Rp593
ag312
((lp594
(lp595
g315
aF72.18184923084418
aa(lp596
g317
ag318
aa(lp597
g320
aI6
aatp598
Rp599
ag312
((lp600
(lp601
g315
aF21.738279773348278
aa(lp602
g317
ag326
aa(lp603
g320
aI1
aatp604
Rp605
ag312
((lp606
(lp607
g315
aF90.15260301538721
aa(lp608
g317
ag318
aa(lp609
g320
aI4
aatp610
Rp611
ag312
((lp612
(lp613
g315
aF90.15260301538721
aa(lp614
g317
ag318
aa(lp615
g320
aI4
aatp616
Rp617
ag312
((lp618
(lp619
g315
aF2.9319129045484305
aa(lp620
g317
ag318
aa(lp621
g320
aI15
aatp622
Rp623
ag312
((lp624
(lp625
g315
aF65.19413797500401
aa(lp626
g317
ag318
aa(lp627
g320
aI1
aatp628
Rp629
ag312
((lp630
(lp631
g315
aF21.738279773348278
aa(lp632
g317
aS'rbf'
p633
aa(lp634
g320
aI9
aatp635
Rp636
ag312
((lp637
(lp638
g315
aF72.18184923084418
aa(lp639
g317
ag318
aa(lp640
g320
aI6
aatp641
Rp642
ag312
((lp643
(lp644
g315
aF65.19413797500401
aa(lp645
g317
ag318
aa(lp646
g320
aI1
aatp647
Rp648
ag312
((lp649
(lp650
g315
aF72.18184923084418
aa(lp651
g317
ag318
aa(lp652
g320
aI6
aatp653
Rp654
ag312
((lp655
(lp656
g315
aF76.2517802375484
aa(lp657
g317
ag318
aa(lp658
g320
aI9
aatp659
Rp660
ag312
((lp661
(lp662
g315
aF76.2517802375484
aa(lp663
g317
ag318
aa(lp664
g320
aI9
aatp665
Rp666
ag312
((lp667
(lp668
g315
aF2.9319129045484305
aa(lp669
g317
ag318
aa(lp670
g320
aI15
aatp671
Rp672
ag312
((lp673
(lp674
g315
aF76.2517802375484
aa(lp675
g317
ag318
aa(lp676
g320
aI9
aatp677
Rp678
ag312
((lp679
(lp680
g315
aF65.19413797500401
aa(lp681
g317
ag318
aa(lp682
g320
aI1
aatp683
Rp684
ag312
((lp685
(lp686
g315
aF90.15260301538721
aa(lp687
g317
ag318
aa(lp688
g320
aI4
aatp689
Rp690
ag312
((lp691
(lp692
g315
aF90.15260301538721
aa(lp693
g317
ag318
aa(lp694
g320
aI4
aatp695
Rp696
ag312
((lp697
(lp698
g315
aF90.15260301538721
aa(lp699
g317
ag318
aa(lp700
g320
aI4
aatp701
Rp702
ag312
((lp703
(lp704
g315
aF90.15260301538721
aa(lp705
g317
ag318
aa(lp706
g320
aI4
aatp707
Rp708
ag312
((lp709
(lp710
g315
aF65.19413797500401
aa(lp711
g317
ag318
aa(lp712
g320
aI1
aatp713
Rp714
ag312
((lp715
(lp716
g315
aF72.18184923084418
aa(lp717
g317
ag318
aa(lp718
g320
aI6
aatp719
Rp720
ag312
((lp721
(lp722
g315
aF76.2517802375484
aa(lp723
g317
ag318
aa(lp724
g320
aI9
aatp725
Rp726
ag312
((lp727
(lp728
g315
aF2.9319129045484305
aa(lp729
g317
ag318
aa(lp730
g320
aI15
aatp731
Rp732
ag312
((lp733
(lp734
g315
aF72.18184923084418
aa(lp735
g317
ag318
aa(lp736
g320
aI6
aatp737
Rp738
ag312
((lp739
(lp740
g315
aF65.19413797500401
aa(lp741
g317
ag326
aa(lp742
g320
aI1
aatp743
Rp744
ag312
((lp745
(lp746
g315
aF90.15260301538721
aa(lp747
g317
ag318
aa(lp748
g320
aI4
aatp749
Rp750
ag312
((lp751
(lp752
g315
aF72.18184923084418
aa(lp753
g317
ag318
aa(lp754
g320
aI6
aatp755
Rp756
ag312
((lp757
(lp758
g315
aF65.19413797500401
aa(lp759
g317
ag318
aa(lp760
g320
aI1
aatp761
Rp762
ag312
((lp763
(lp764
g315
aF21.738279773348278
aa(lp765
g317
ag326
aa(lp766
g320
aI1
aatp767
Rp768
ag312
((lp769
(lp770
g315
aF2.9319129045484305
aa(lp771
g317
ag318
aa(lp772
g320
aI15
aatp773
Rp774
ag312
((lp775
(lp776
g315
aF72.18184923084418
aa(lp777
g317
ag318
aa(lp778
g320
aI6
aatp779
Rp780
ag312
((lp781
(lp782
g315
aF21.738279773348278
aa(lp783
g317
ag326
aa(lp784
g320
aI1
aatp785
Rp786
ag312
((lp787
(lp788
g315
aF21.738279773348278
aa(lp789
g317
ag326
aa(lp790
g320
aI1
aatp791
Rp792
ag312
((lp793
(lp794
g315
aF76.2517802375484
aa(lp795
g317
ag318
aa(lp796
g320
aI9
aatp797
Rp798
ag312
((lp799
(lp800
g315
aF76.2517802375484
aa(lp801
g317
ag318
aa(lp802
g320
aI9
aatp803
Rp804
ag312
((lp805
(lp806
g315
aF65.19413797500401
aa(lp807
g317
ag318
aa(lp808
g320
aI1
aatp809
Rp810
ag312
((lp811
(lp812
g315
aF21.738279773348278
aa(lp813
g317
ag326
aa(lp814
g320
aI1
aatp815
Rp816
ag312
((lp817
(lp818
g315
aF76.2517802375484
aa(lp819
g317
ag318
aa(lp820
g320
aI9
aatp821
Rp822
ag312
((lp823
(lp824
g315
aF21.738279773348278
aa(lp825
g317
ag326
aa(lp826
g320
aI1
aatp827
Rp828
ag312
((lp829
(lp830
g315
aF65.19413797500401
aa(lp831
g317
ag326
aa(lp832
g320
aI1
aatp833
Rp834
ag312
((lp835
(lp836
g315
aF65.19413797500401
aa(lp837
g317
ag326
aa(lp838
g320
aI1
aatp839
Rp840
ag312
((lp841
(lp842
g315
aF65.19413797500401
aa(lp843
g317
ag326
aa(lp844
g320
aI1
aatp845
Rp846
ag312
((lp847
(lp848
g315
aF72.18184923084418
aa(lp849
g317
ag318
aa(lp850
g320
aI6
aatp851
Rp852
ag312
((lp853
(lp854
g315
aF90.15260301538721
aa(lp855
g317
ag318
aa(lp856
g320
aI4
aatp857
Rp858
ag312
((lp859
(lp860
g315
aF65.19413797500401
aa(lp861
g317
ag326
aa(lp862
g320
aI1
aatp863
Rp864
ag312
((lp865
(lp866
g315
aF65.19413797500401
aa(lp867
g317
ag318
aa(lp868
g320
aI1
aatp869
Rp870
ag312
((lp871
(lp872
g315
aF72.18184923084418
aa(lp873
g317
ag318
aa(lp874
g320
aI6
aatp875
Rp876
ag312
((lp877
(lp878
g315
aF2.9319129045484305
aa(lp879
g317
ag318
aa(lp880
g320
aI15
aatp881
Rp882
ag312
((lp883
(lp884
g315
aF21.738279773348278
aa(lp885
g317
ag326
aa(lp886
g320
aI1
aatp887
Rp888
ag312
((lp889
(lp890
g315
aF2.9319129045484305
aa(lp891
g317
ag318
aa(lp892
g320
aI15
aatp893
Rp894
ag312
((lp895
(lp896
g315
aF90.15260301538721
aa(lp897
g317
ag318
aa(lp898
g320
aI4
aatp899
Rp900
ag312
((lp901
(lp902
g315
aF76.2517802375484
aa(lp903
g317
ag318
aa(lp904
g320
aI9
aatp905
Rp906
ag312
((lp907
(lp908
g315
aF90.15260301538721
aa(lp909
g317
ag318
aa(lp910
g320
aI4
aatp911
Rp912
ag312
((lp913
(lp914
g315
aF65.19413797500401
aa(lp915
g317
ag326
aa(lp916
g320
aI1
aatp917
Rp918
aaF15752.748633146286
asS'run_rfreg'
p919
(lp920
(lp921
g4
(g8
S'\xf6u\xc5\xff\xda\x80\x01@'
p922
tp923
Rp924
ag4
(g8
S'w;Oc\x06\xfc\xfc?'
p925
tp926
Rp927
ag4
(g8
S'0\x08\xb2\xf1O\xcc\xf8?'
p928
tp929
Rp930
ag4
(g8
S'\xfb\x0e\xf4V=\xbf\xf5?'
p931
tp932
Rp933
ag4
(g8
S'\xa4 \x8d\xec=\x9f\xf7?'
p934
tp935
Rp936
ag4
(g8
S'\x1d\xc7,\xca\x0e\xa4\x00@'
p937
tp938
Rp939
ag4
(g8
S'\xdcP\x12`\x8f\xd3\xf2?'
p940
tp941
Rp942
ag4
(g8
S'\xfc\xd7S\x02\x13\xe5\x03@'
p943
tp944
Rp945
ag4
(g8
S'\x91\xdf\xc4\x98\x04\x00\xf8?'
p946
tp947
Rp948
ag4
(g8
S'\xc6?C\xcco*\xf7?'
p949
tp950
Rp951
ag4
(g8
S'x \xa3\x0eE\xe2\xfc?'
p952
tp953
Rp954
ag4
(g8
S'R\\\xeeL\xd1\x04\x00@'
p955
tp956
Rp957
ag4
(g8
S'\xa7\x84\x18{\xf6\xf7\x04@'
p958
tp959
Rp960
ag4
(g8
S'!\x1bt\xc4K\xc2\xf7?'
p961
tp962
Rp963
ag4
(g8
S'|qv\xc0\x04\xf9\x03@'
p964
tp965
Rp966
ag4
(g8
S'\x02Z\xc7V\xf0p\x03@'
p967
tp968
Rp969
ag4
(g8
S'g\xc81WAB\r@'
p970
tp971
Rp972
ag4
(g8
S'\x15\x0c(*\xee\xff\x00@'
p973
tp974
Rp975
ag4
(g8
S'\x1a\xd0\xf3\x97\xee_\xf7?'
p976
tp977
Rp978
ag4
(g8
S'[\xd8)\xd6\x03\x00\x06@'
p979
tp980
Rp981
ag4
(g8
S'L\xe9o\xdd\xe5\x86\x03@'
p982
tp983
Rp984
ag4
(g8
S'\xe3H\x0b#\xb1u\xff?'
p985
tp986
Rp987
ag4
(g8
S'\xe3\xbd\x8dE\x07\x7f\xf4?'
p988
tp989
Rp990
ag4
(g8
S'\x95\xb3\xdf\xbb4o\xf5?'
p991
tp992
Rp993
ag4
(g8
S'\xbf\xfe\xea\xe7:\xe7\xfc?'
p994
tp995
Rp996
ag4
(g8
S'\x12\xbdC\xe7\xcd\x89\x03@'
p997
tp998
Rp999
ag4
(g8
S'\x05?\xfb\xd5\xf2/\n@'
p1000
tp1001
Rp1002
ag4
(g8
S'\n2e\xa3\xec\xf0\xfb?'
p1003
tp1004
Rp1005
ag4
(g8
S':\x90g\x0c}\xa3\xfc?'
p1006
tp1007
Rp1008
ag4
(g8
S'z\x8f?\x87\xb8T\x01@'
p1009
tp1010
Rp1011
ag4
(g8
S'5\xa5/\t\x16E\xff?'
p1012
tp1013
Rp1014
ag4
(g8
S'\x18!\xe1\xfe\xed\x9a\x03@'
p1015
tp1016
Rp1017
ag4
(g8
S'/\x99E\xc0Jl\x07@'
p1018
tp1019
Rp1020
ag4
(g8
S'\x8c\xd5\x8c\xa8&$\xf3?'
p1021
tp1022
Rp1023
ag4
(g8
S'\xb0qQD\xffm\x01@'
p1024
tp1025
Rp1026
ag4
(g8
S'\xb4\xc7A\xd67:\xf8?'
p1027
tp1028
Rp1029
ag4
(g8
S'\x8f\xee\x076\xa0\xb5\x00@'
p1030
tp1031
Rp1032
ag4
(g8
S'\x11\xa2\xcb\x9b\xb7G\x01@'
p1033
tp1034
Rp1035
ag4
(g8
S'\x7f\xa1t\xb0Gm\x02@'
p1036
tp1037
Rp1038
ag4
(g8
S'\xd5\xee<}\xfe\x8b\xf8?'
p1039
tp1040
Rp1041
ag4
(g8
S'\x7f\xaf\xde\xd4\xd3v\x01@'
p1042
tp1043
Rp1044
ag4
(g8
S'6\xaeH\xf1\xc3\xc1\xf7?'
p1045
tp1046
Rp1047
ag4
(g8
S'\xfe\xa7\x00\x01\xca\xba\x02@'
p1048
tp1049
Rp1050
ag4
(g8
S'\x9dE QI\xb5\x04@'
p1051
tp1052
Rp1053
ag4
(g8
S'Y\xae\xa5\xaa\xc8p\x02@'
p1054
tp1055
Rp1056
ag4
(g8
S'-\xc7I\xef2\xc1\xfa?'
p1057
tp1058
Rp1059
ag4
(g8
S'X\xdc\xcd\xc0\xdf\x8b\xfe?'
p1060
tp1061
Rp1062
ag4
(g8
S'\x9a1\xdc\xdb\xf1x\x03@'
p1063
tp1064
Rp1065
ag4
(g8
S'\xaa4[\xa1bf\xfe?'
p1066
tp1067
Rp1068
ag4
(g8
S'\xbe%6\x94w\xd7\x00@'
p1069
tp1070
Rp1071
ag4
(g8
S'b\xf88\xa7\xc5\x80\xfb?'
p1072
tp1073
Rp1074
ag4
(g8
S'B\x00\xa0\xcd[\xaa\x04@'
p1075
tp1076
Rp1077
ag4
(g8
S'\xc2\xaa\x8aZ\xc3\xc6\xff?'
p1078
tp1079
Rp1080
ag4
(g8
S'\x01\xf89\xed\xffK\x03@'
p1081
tp1082
Rp1083
ag4
(g8
S'zv=\xe8\xf9\x92\x03@'
p1084
tp1085
Rp1086
ag4
(g8
S'kQ\xec\x1bG\xa1\x05@'
p1087
tp1088
Rp1089
ag4
(g8
S'7~\xff\x0ey\x9c\x03@'
p1090
tp1091
Rp1092
ag4
(g8
S'F\x19\x07%\x13\x11\xf5?'
p1093
tp1094
Rp1095
ag4
(g8
S'l\x15\x19\xe6\x88\t\x00@'
p1096
tp1097
Rp1098
ag4
(g8
S' "\x96\xd4W\x01\xfb?'
p1099
tp1100
Rp1101
ag4
(g8
S'\xd5*\xbc8b\x1c\x02@'
p1102
tp1103
Rp1104
ag4
(g8
S'V\xd8y\x07\n\x07\xf8?'
p1105
tp1106
Rp1107
ag4
(g8
S'\xe8!\xb9\x93\x90\x13\xfa?'
p1108
tp1109
Rp1110
ag4
(g8
S'\xf1E\xdb\xa1\xa3\xaa\xf1?'
p1111
tp1112
Rp1113
ag4
(g8
S'\xf7\xacM\xd6\x99h\xfe?'
p1114
tp1115
Rp1116
ag4
(g8
S']\xc2\xe6\x1b{\xa1\x04@'
p1117
tp1118
Rp1119
ag4
(g8
S'\xd6\x03\xbe\xda!D\xfc?'
p1120
tp1121
Rp1122
ag4
(g8
S'\xab\x01\x07T\\\x1d\xf6?'
p1123
tp1124
Rp1125
ag4
(g8
S'\x9d\ns\x03\xfeT\xf9?'
p1126
tp1127
Rp1128
ag4
(g8
S'\x89\x05p-\xe6^\x02@'
p1129
tp1130
Rp1131
ag4
(g8
S'\xef\xab\xc4x\xa1\x01\t@'
p1132
tp1133
Rp1134
ag4
(g8
S'\xa2z\xf5\xf3\xad\xb1\xfd?'
p1135
tp1136
Rp1137
ag4
(g8
S'\xc7\xbawO\xf1Z\x00@'
p1138
tp1139
Rp1140
ag4
(g8
S'\x177\r\xa1Ni\x04@'
p1141
tp1142
Rp1143
ag4
(g8
S'P\xc6\xbf\xa0z;\xfc?'
p1144
tp1145
Rp1146
ag4
(g8
S'l\xa1?\xe9\x9e\xf0\xff?'
p1147
tp1148
Rp1149
ag4
(g8
S';\xf9\n\x8eL\xc7\xfd?'
p1150
tp1151
Rp1152
ag4
(g8
S'\xd5C\xa7\x04G1\xf7?'
p1153
tp1154
Rp1155
ag4
(g8
S'\xa4\xd5\xcd\xf3.J\xfc?'
p1156
tp1157
Rp1158
ag4
(g8
S';~\xae>q\xb8\xfe?'
p1159
tp1160
Rp1161
ag4
(g8
S'\xc8T\xd54\x96\x92\x07@'
p1162
tp1163
Rp1164
ag4
(g8
S'@\x9c\xc5\x14h|\xfc?'
p1165
tp1166
Rp1167
ag4
(g8
S'\xb2={S\xc23\x00@'
p1168
tp1169
Rp1170
ag4
(g8
S'\xab\x94p\xc2\xe3Q\x02@'
p1171
tp1172
Rp1173
ag4
(g8
S'%\xa8}\x13\x86>\xf5?'
p1174
tp1175
Rp1176
ag4
(g8
S'l\x98\xfb\x8d\xdf1\xf6?'
p1177
tp1178
Rp1179
ag4
(g8
S'\xcbj\x03y@\x90\xfb?'
p1180
tp1181
Rp1182
ag4
(g8
S'\xa4\x80\xa9\xe5\xb2|\xfe?'
p1183
tp1184
Rp1185
ag4
(g8
S'3\xa98\xc1$`\xf3?'
p1186
tp1187
Rp1188
ag4
(g8
S'\x9d\x88\xac[W\x9f\x03@'
p1189
tp1190
Rp1191
ag4
(g8
S'^4\xfb\xbaE\x04\x02@'
p1192
tp1193
Rp1194
ag4
(g8
S'\x9c^<b\x9f\xe1\xff?'
p1195
tp1196
Rp1197
ag4
(g8
S'\xea\x0en\xa2\xc1\x02\xf7?'
p1198
tp1199
Rp1200
ag4
(g8
S'j\x169\x8a\x04\x8c\x03@'
p1201
tp1202
Rp1203
ag4
(g8
S'(\x87lho\x80\xf4?'
p1204
tp1205
Rp1206
ag4
(g8
S'gP\xaa\x16\xfe#\x03@'
p1207
tp1208
Rp1209
ag4
(g8
S'mc\xe0\x82\xd2)\xfc?'
p1210
tp1211
Rp1212
ag4
(g8
S'\xb2\x00\xf3\x1f\xcd\x89\xfa?'
p1213
tp1214
Rp1215
ag4
(g8
S'/\xbfn\xb6\r\x17\xfa?'
p1216
tp1217
Rp1218
ag4
(g8
S'\xce\x18\xda-*c\xfb?'
p1219
tp1220
Rp1221
aa(lp1222
g312
((lp1223
(lp1224
S'max_features'
p1225
aF0.5102309823738044
aa(lp1226
S'min_samples_split'
p1227
aI14
aa(lp1228
S'max_leaf_nodes'
p1229
aI23
aa(lp1230
S'min_samples_leaf'
p1231
aI4
aa(lp1232
S'min_impurity_split'
p1233
aF0.7974042475543028
aa(lp1234
S'n_estimators'
p1235
aI55
aatp1236
Rp1237
ag312
((lp1238
(lp1239
g1225
aF0.7646572816333626
aa(lp1240
g1227
aI18
aa(lp1241
g1229
aI46
aa(lp1242
g1231
aI1
aa(lp1243
g1233
aF0.22876222127045265
aa(lp1244
g1235
aI60
aatp1245
Rp1246
ag312
((lp1247
(lp1248
g1225
aF0.7646572816333626
aa(lp1249
g1227
aI2
aa(lp1250
g1229
aI23
aa(lp1251
g1231
aI15
aa(lp1252
g1233
aF0.22876222127045265
aa(lp1253
g1235
aI98
aatp1254
Rp1255
ag312
((lp1256
(lp1257
g1225
aF0.7646572816333626
aa(lp1258
g1227
aI18
aa(lp1259
g1229
aI9
aa(lp1260
g1231
aI11
aa(lp1261
g1233
aF0.22876222127045265
aa(lp1262
g1235
aI90
aatp1263
Rp1264
ag312
((lp1265
(lp1266
g1225
aF0.5102309823738044
aa(lp1267
g1227
aI14
aa(lp1268
g1229
aI23
aa(lp1269
g1231
aI4
aa(lp1270
g1233
aF0.7974042475543028
aa(lp1271
g1235
aI55
aatp1272
Rp1273
ag312
((lp1274
(lp1275
g1225
aF0.7646572816333626
aa(lp1276
g1227
aI3
aa(lp1277
g1229
aI29
aa(lp1278
g1231
aI2
aa(lp1279
g1233
aF0.22876222127045265
aa(lp1280
g1235
aI53
aatp1281
Rp1282
ag312
((lp1283
(lp1284
g1225
aF0.8317353363415838
aa(lp1285
g1227
aI19
aa(lp1286
g1229
aI16
aa(lp1287
g1231
aI6
aa(lp1288
g1233
aF0.8824790008318577
aa(lp1289
g1235
aI74
aatp1290
Rp1291
ag312
((lp1292
(lp1293
g1225
aF0.8317353363415838
aa(lp1294
g1227
aI20
aa(lp1295
g1229
aI42
aa(lp1296
g1231
aI7
aa(lp1297
g1233
aF0.8824790008318577
aa(lp1298
g1235
aI55
aatp1299
Rp1300
ag312
((lp1301
(lp1302
g1225
aF0.8392021959059471
aa(lp1303
g1227
aI14
aa(lp1304
g1229
aI48
aa(lp1305
g1231
aI8
aa(lp1306
g1233
aF0.9925434121760651
aa(lp1307
g1235
aI65
aatp1308
Rp1309
ag312
((lp1310
(lp1311
g1225
aF0.6550770429955354
aa(lp1312
g1227
aI16
aa(lp1313
g1229
aI28
aa(lp1314
g1231
aI18
aa(lp1315
g1233
aF0.8357651039198697
aa(lp1316
g1235
aI61
aatp1317
Rp1318
ag312
((lp1319
(lp1320
g1225
aF0.8392021959059471
aa(lp1321
g1227
aI12
aa(lp1322
g1229
aI17
aa(lp1323
g1231
aI5
aa(lp1324
g1233
aF0.9925434121760651
aa(lp1325
g1235
aI54
aatp1326
Rp1327
ag312
((lp1328
(lp1329
g1225
aF0.8317353363415838
aa(lp1330
g1227
aI14
aa(lp1331
g1229
aI16
aa(lp1332
g1231
aI12
aa(lp1333
g1233
aF0.8824790008318577
aa(lp1334
g1235
aI93
aatp1335
Rp1336
ag312
((lp1337
(lp1338
g1225
aF0.7646572816333626
aa(lp1339
g1227
aI18
aa(lp1340
g1229
aI46
aa(lp1341
g1231
aI1
aa(lp1342
g1233
aF0.22876222127045265
aa(lp1343
g1235
aI60
aatp1344
Rp1345
ag312
((lp1346
(lp1347
g1225
aF0.8392021959059471
aa(lp1348
g1227
aI12
aa(lp1349
g1229
aI33
aa(lp1350
g1231
aI4
aa(lp1351
g1233
aF0.9925434121760651
aa(lp1352
g1235
aI93
aatp1353
Rp1354
ag312
((lp1355
(lp1356
g1225
aF0.8317353363415838
aa(lp1357
g1227
aI14
aa(lp1358
g1229
aI16
aa(lp1359
g1231
aI12
aa(lp1360
g1233
aF0.8824790008318577
aa(lp1361
g1235
aI93
aatp1362
Rp1363
ag312
((lp1364
(lp1365
g1225
aF0.8392021959059471
aa(lp1366
g1227
aI12
aa(lp1367
g1229
aI17
aa(lp1368
g1231
aI5
aa(lp1369
g1233
aF0.9925434121760651
aa(lp1370
g1235
aI54
aatp1371
Rp1372
ag312
((lp1373
(lp1374
g1225
aF0.8317353363415838
aa(lp1375
g1227
aI20
aa(lp1376
g1229
aI13
aa(lp1377
g1231
aI15
aa(lp1378
g1233
aF0.8824790008318577
aa(lp1379
g1235
aI54
aatp1380
Rp1381
ag312
((lp1382
(lp1383
g1225
aF0.7646572816333626
aa(lp1384
g1227
aI18
aa(lp1385
g1229
aI46
aa(lp1386
g1231
aI1
aa(lp1387
g1233
aF0.22876222127045265
aa(lp1388
g1235
aI60
aatp1389
Rp1390
ag312
((lp1391
(lp1392
g1225
aF0.8317353363415838
aa(lp1393
g1227
aI16
aa(lp1394
g1229
aI22
aa(lp1395
g1231
aI6
aa(lp1396
g1233
aF0.8824790008318577
aa(lp1397
g1235
aI50
aatp1398
Rp1399
ag312
((lp1400
(lp1401
g1225
aF0.7646572816333626
aa(lp1402
g1227
aI18
aa(lp1403
g1229
aI46
aa(lp1404
g1231
aI1
aa(lp1405
g1233
aF0.22876222127045265
aa(lp1406
g1235
aI60
aatp1407
Rp1408
ag312
((lp1409
(lp1410
g1225
aF0.8317353363415838
aa(lp1411
g1227
aI16
aa(lp1412
g1229
aI22
aa(lp1413
g1231
aI6
aa(lp1414
g1233
aF0.8824790008318577
aa(lp1415
g1235
aI50
aatp1416
Rp1417
ag312
((lp1418
(lp1419
g1225
aF0.8317353363415838
aa(lp1420
g1227
aI16
aa(lp1421
g1229
aI22
aa(lp1422
g1231
aI6
aa(lp1423
g1233
aF0.8824790008318577
aa(lp1424
g1235
aI50
aatp1425
Rp1426
ag312
((lp1427
(lp1428
g1225
aF0.8317353363415838
aa(lp1429
g1227
aI18
aa(lp1430
g1229
aI8
aa(lp1431
g1231
aI12
aa(lp1432
g1233
aF0.8824790008318577
aa(lp1433
g1235
aI55
aatp1434
Rp1435
ag312
((lp1436
(lp1437
g1225
aF0.8317353363415838
aa(lp1438
g1227
aI19
aa(lp1439
g1229
aI16
aa(lp1440
g1231
aI6
aa(lp1441
g1233
aF0.8824790008318577
aa(lp1442
g1235
aI74
aatp1443
Rp1444
ag312
((lp1445
(lp1446
g1225
aF0.8392021959059471
aa(lp1447
g1227
aI4
aa(lp1448
g1229
aI46
aa(lp1449
g1231
aI1
aa(lp1450
g1233
aF0.9925434121760651
aa(lp1451
g1235
aI66
aatp1452
Rp1453
ag312
((lp1454
(lp1455
g1225
aF0.8317353363415838
aa(lp1456
g1227
aI7
aa(lp1457
g1229
aI18
aa(lp1458
g1231
aI11
aa(lp1459
g1233
aF0.8824790008318577
aa(lp1460
g1235
aI79
aatp1461
Rp1462
ag312
((lp1463
(lp1464
g1225
aF0.7646572816333626
aa(lp1465
g1227
aI18
aa(lp1466
g1229
aI46
aa(lp1467
g1231
aI1
aa(lp1468
g1233
aF0.22876222127045265
aa(lp1469
g1235
aI60
aatp1470
Rp1471
ag312
((lp1472
(lp1473
g1225
aF0.8392021959059471
aa(lp1474
g1227
aI8
aa(lp1475
g1229
aI32
aa(lp1476
g1231
aI2
aa(lp1477
g1233
aF0.9925434121760651
aa(lp1478
g1235
aI65
aatp1479
Rp1480
ag312
((lp1481
(lp1482
g1225
aF0.7646572816333626
aa(lp1483
g1227
aI7
aa(lp1484
g1229
aI45
aa(lp1485
g1231
aI12
aa(lp1486
g1233
aF0.22876222127045265
aa(lp1487
g1235
aI97
aatp1488
Rp1489
ag312
((lp1490
(lp1491
g1225
aF0.7646572816333626
aa(lp1492
g1227
aI18
aa(lp1493
g1229
aI46
aa(lp1494
g1231
aI1
aa(lp1495
g1233
aF0.22876222127045265
aa(lp1496
g1235
aI60
aatp1497
Rp1498
ag312
((lp1499
(lp1500
g1225
aF0.7646572816333626
aa(lp1501
g1227
aI2
aa(lp1502
g1229
aI34
aa(lp1503
g1231
aI2
aa(lp1504
g1233
aF0.22876222127045265
aa(lp1505
g1235
aI55
aatp1506
Rp1507
ag312
((lp1508
(lp1509
g1225
aF0.7646572816333626
aa(lp1510
g1227
aI18
aa(lp1511
g1229
aI46
aa(lp1512
g1231
aI1
aa(lp1513
g1233
aF0.22876222127045265
aa(lp1514
g1235
aI60
aatp1515
Rp1516
ag312
((lp1517
(lp1518
g1225
aF0.8317353363415838
aa(lp1519
g1227
aI14
aa(lp1520
g1229
aI48
aa(lp1521
g1231
aI8
aa(lp1522
g1233
aF0.8824790008318577
aa(lp1523
g1235
aI65
aatp1524
Rp1525
ag312
((lp1526
(lp1527
g1225
aF0.8317353363415838
aa(lp1528
g1227
aI14
aa(lp1529
g1229
aI16
aa(lp1530
g1231
aI12
aa(lp1531
g1233
aF0.8824790008318577
aa(lp1532
g1235
aI93
aatp1533
Rp1534
ag312
((lp1535
(lp1536
g1225
aF0.7646572816333626
aa(lp1537
g1227
aI7
aa(lp1538
g1229
aI45
aa(lp1539
g1231
aI12
aa(lp1540
g1233
aF0.22876222127045265
aa(lp1541
g1235
aI97
aatp1542
Rp1543
ag312
((lp1544
(lp1545
g1225
aF0.7646572816333626
aa(lp1546
g1227
aI2
aa(lp1547
g1229
aI34
aa(lp1548
g1231
aI2
aa(lp1549
g1233
aF0.22876222127045265
aa(lp1550
g1235
aI55
aatp1551
Rp1552
ag312
((lp1553
(lp1554
g1225
aF0.8317353363415838
aa(lp1555
g1227
aI14
aa(lp1556
g1229
aI16
aa(lp1557
g1231
aI12
aa(lp1558
g1233
aF0.8824790008318577
aa(lp1559
g1235
aI93
aatp1560
Rp1561
ag312
((lp1562
(lp1563
g1225
aF0.7646572816333626
aa(lp1564
g1227
aI18
aa(lp1565
g1229
aI46
aa(lp1566
g1231
aI1
aa(lp1567
g1233
aF0.22876222127045265
aa(lp1568
g1235
aI60
aatp1569
Rp1570
ag312
((lp1571
(lp1572
g1225
aF0.8317353363415838
aa(lp1573
g1227
aI7
aa(lp1574
g1229
aI18
aa(lp1575
g1231
aI11
aa(lp1576
g1233
aF0.8824790008318577
aa(lp1577
g1235
aI79
aatp1578
Rp1579
ag312
((lp1580
(lp1581
g1225
aF0.7646572816333626
aa(lp1582
g1227
aI18
aa(lp1583
g1229
aI9
aa(lp1584
g1231
aI11
aa(lp1585
g1233
aF0.22876222127045265
aa(lp1586
g1235
aI90
aatp1587
Rp1588
ag312
((lp1589
(lp1590
g1225
aF0.7646572816333626
aa(lp1591
g1227
aI2
aa(lp1592
g1229
aI34
aa(lp1593
g1231
aI2
aa(lp1594
g1233
aF0.22876222127045265
aa(lp1595
g1235
aI55
aatp1596
Rp1597
ag312
((lp1598
(lp1599
g1225
aF0.7646572816333626
aa(lp1600
g1227
aI18
aa(lp1601
g1229
aI46
aa(lp1602
g1231
aI1
aa(lp1603
g1233
aF0.22876222127045265
aa(lp1604
g1235
aI60
aatp1605
Rp1606
ag312
((lp1607
(lp1608
g1225
aF0.5102309823738044
aa(lp1609
g1227
aI13
aa(lp1610
g1229
aI32
aa(lp1611
g1231
aI10
aa(lp1612
g1233
aF0.7974042475543028
aa(lp1613
g1235
aI51
aatp1614
Rp1615
ag312
((lp1616
(lp1617
g1225
aF0.7646572816333626
aa(lp1618
g1227
aI18
aa(lp1619
g1229
aI46
aa(lp1620
g1231
aI1
aa(lp1621
g1233
aF0.22876222127045265
aa(lp1622
g1235
aI60
aatp1623
Rp1624
ag312
((lp1625
(lp1626
g1225
aF0.7646572816333626
aa(lp1627
g1227
aI7
aa(lp1628
g1229
aI45
aa(lp1629
g1231
aI12
aa(lp1630
g1233
aF0.22876222127045265
aa(lp1631
g1235
aI97
aatp1632
Rp1633
ag312
((lp1634
(lp1635
g1225
aF0.8317353363415838
aa(lp1636
g1227
aI7
aa(lp1637
g1229
aI18
aa(lp1638
g1231
aI11
aa(lp1639
g1233
aF0.8824790008318577
aa(lp1640
g1235
aI79
aatp1641
Rp1642
ag312
((lp1643
(lp1644
g1225
aF0.8392021959059471
aa(lp1645
g1227
aI12
aa(lp1646
g1229
aI17
aa(lp1647
g1231
aI5
aa(lp1648
g1233
aF0.9925434121760651
aa(lp1649
g1235
aI54
aatp1650
Rp1651
ag312
((lp1652
(lp1653
g1225
aF0.7646572816333626
aa(lp1654
g1227
aI2
aa(lp1655
g1229
aI34
aa(lp1656
g1231
aI2
aa(lp1657
g1233
aF0.22876222127045265
aa(lp1658
g1235
aI55
aatp1659
Rp1660
ag312
((lp1661
(lp1662
g1225
aF0.5102309823738044
aa(lp1663
g1227
aI13
aa(lp1664
g1229
aI32
aa(lp1665
g1231
aI10
aa(lp1666
g1233
aF0.7974042475543028
aa(lp1667
g1235
aI51
aatp1668
Rp1669
ag312
((lp1670
(lp1671
g1225
aF0.8317353363415838
aa(lp1672
g1227
aI16
aa(lp1673
g1229
aI22
aa(lp1674
g1231
aI6
aa(lp1675
g1233
aF0.8824790008318577
aa(lp1676
g1235
aI50
aatp1677
Rp1678
ag312
((lp1679
(lp1680
g1225
aF0.8317353363415838
aa(lp1681
g1227
aI19
aa(lp1682
g1229
aI16
aa(lp1683
g1231
aI6
aa(lp1684
g1233
aF0.8824790008318577
aa(lp1685
g1235
aI74
aatp1686
Rp1687
ag312
((lp1688
(lp1689
g1225
aF0.7646572816333626
aa(lp1690
g1227
aI7
aa(lp1691
g1229
aI45
aa(lp1692
g1231
aI12
aa(lp1693
g1233
aF0.22876222127045265
aa(lp1694
g1235
aI97
aatp1695
Rp1696
ag312
((lp1697
(lp1698
g1225
aF0.7646572816333626
aa(lp1699
g1227
aI4
aa(lp1700
g1229
aI10
aa(lp1701
g1231
aI5
aa(lp1702
g1233
aF0.22876222127045265
aa(lp1703
g1235
aI87
aatp1704
Rp1705
ag312
((lp1706
(lp1707
g1225
aF0.8317353363415838
aa(lp1708
g1227
aI14
aa(lp1709
g1229
aI16
aa(lp1710
g1231
aI12
aa(lp1711
g1233
aF0.8824790008318577
aa(lp1712
g1235
aI93
aatp1713
Rp1714
ag312
((lp1715
(lp1716
g1225
aF0.5102309823738044
aa(lp1717
g1227
aI13
aa(lp1718
g1229
aI32
aa(lp1719
g1231
aI10
aa(lp1720
g1233
aF0.7974042475543028
aa(lp1721
g1235
aI51
aatp1722
Rp1723
ag312
((lp1724
(lp1725
g1225
aF0.7646572816333626
aa(lp1726
g1227
aI18
aa(lp1727
g1229
aI46
aa(lp1728
g1231
aI1
aa(lp1729
g1233
aF0.22876222127045265
aa(lp1730
g1235
aI60
aatp1731
Rp1732
ag312
((lp1733
(lp1734
g1225
aF0.8317353363415838
aa(lp1735
g1227
aI20
aa(lp1736
g1229
aI42
aa(lp1737
g1231
aI7
aa(lp1738
g1233
aF0.8824790008318577
aa(lp1739
g1235
aI55
aatp1740
Rp1741
ag312
((lp1742
(lp1743
g1225
aF0.8317353363415838
aa(lp1744
g1227
aI18
aa(lp1745
g1229
aI8
aa(lp1746
g1231
aI12
aa(lp1747
g1233
aF0.8824790008318577
aa(lp1748
g1235
aI55
aatp1749
Rp1750
ag312
((lp1751
(lp1752
g1225
aF0.8392021959059471
aa(lp1753
g1227
aI14
aa(lp1754
g1229
aI48
aa(lp1755
g1231
aI8
aa(lp1756
g1233
aF0.9925434121760651
aa(lp1757
g1235
aI65
aatp1758
Rp1759
ag312
((lp1760
(lp1761
g1225
aF0.7646572816333626
aa(lp1762
g1227
aI18
aa(lp1763
g1229
aI46
aa(lp1764
g1231
aI1
aa(lp1765
g1233
aF0.22876222127045265
aa(lp1766
g1235
aI60
aatp1767
Rp1768
ag312
((lp1769
(lp1770
g1225
aF0.8392021959059471
aa(lp1771
g1227
aI8
aa(lp1772
g1229
aI32
aa(lp1773
g1231
aI2
aa(lp1774
g1233
aF0.9925434121760651
aa(lp1775
g1235
aI65
aatp1776
Rp1777
ag312
((lp1778
(lp1779
g1225
aF0.5102309823738044
aa(lp1780
g1227
aI13
aa(lp1781
g1229
aI32
aa(lp1782
g1231
aI10
aa(lp1783
g1233
aF0.7974042475543028
aa(lp1784
g1235
aI51
aatp1785
Rp1786
ag312
((lp1787
(lp1788
g1225
aF0.7646572816333626
aa(lp1789
g1227
aI18
aa(lp1790
g1229
aI46
aa(lp1791
g1231
aI1
aa(lp1792
g1233
aF0.22876222127045265
aa(lp1793
g1235
aI60
aatp1794
Rp1795
ag312
((lp1796
(lp1797
g1225
aF0.8392021959059471
aa(lp1798
g1227
aI20
aa(lp1799
g1229
aI16
aa(lp1800
g1231
aI12
aa(lp1801
g1233
aF0.9925434121760651
aa(lp1802
g1235
aI72
aatp1803
Rp1804
ag312
((lp1805
(lp1806
g1225
aF0.8392021959059471
aa(lp1807
g1227
aI12
aa(lp1808
g1229
aI17
aa(lp1809
g1231
aI5
aa(lp1810
g1233
aF0.9925434121760651
aa(lp1811
g1235
aI54
aatp1812
Rp1813
ag312
((lp1814
(lp1815
g1225
aF0.8392021959059471
aa(lp1816
g1227
aI14
aa(lp1817
g1229
aI48
aa(lp1818
g1231
aI8
aa(lp1819
g1233
aF0.9925434121760651
aa(lp1820
g1235
aI65
aatp1821
Rp1822
ag312
((lp1823
(lp1824
g1225
aF0.9024131830353688
aa(lp1825
g1227
aI17
aa(lp1826
g1229
aI41
aa(lp1827
g1231
aI17
aa(lp1828
g1233
aF0.9391491627785106
aa(lp1829
g1235
aI63
aatp1830
Rp1831
ag312
((lp1832
(lp1833
g1225
aF0.8392021959059471
aa(lp1834
g1227
aI12
aa(lp1835
g1229
aI33
aa(lp1836
g1231
aI4
aa(lp1837
g1233
aF0.9925434121760651
aa(lp1838
g1235
aI93
aatp1839
Rp1840
ag312
((lp1841
(lp1842
g1225
aF0.5102309823738044
aa(lp1843
g1227
aI13
aa(lp1844
g1229
aI32
aa(lp1845
g1231
aI10
aa(lp1846
g1233
aF0.7974042475543028
aa(lp1847
g1235
aI51
aatp1848
Rp1849
ag312
((lp1850
(lp1851
g1225
aF0.7646572816333626
aa(lp1852
g1227
aI18
aa(lp1853
g1229
aI46
aa(lp1854
g1231
aI1
aa(lp1855
g1233
aF0.22876222127045265
aa(lp1856
g1235
aI60
aatp1857
Rp1858
ag312
((lp1859
(lp1860
g1225
aF0.5102309823738044
aa(lp1861
g1227
aI14
aa(lp1862
g1229
aI23
aa(lp1863
g1231
aI4
aa(lp1864
g1233
aF0.7974042475543028
aa(lp1865
g1235
aI55
aatp1866
Rp1867
ag312
((lp1868
(lp1869
g1225
aF0.7646572816333626
aa(lp1870
g1227
aI2
aa(lp1871
g1229
aI34
aa(lp1872
g1231
aI2
aa(lp1873
g1233
aF0.22876222127045265
aa(lp1874
g1235
aI55
aatp1875
Rp1876
ag312
((lp1877
(lp1878
g1225
aF0.7646572816333626
aa(lp1879
g1227
aI2
aa(lp1880
g1229
aI23
aa(lp1881
g1231
aI15
aa(lp1882
g1233
aF0.22876222127045265
aa(lp1883
g1235
aI98
aatp1884
Rp1885
ag312
((lp1886
(lp1887
g1225
aF0.8392021959059471
aa(lp1888
g1227
aI12
aa(lp1889
g1229
aI33
aa(lp1890
g1231
aI4
aa(lp1891
g1233
aF0.9925434121760651
aa(lp1892
g1235
aI93
aatp1893
Rp1894
ag312
((lp1895
(lp1896
g1225
aF0.8392021959059471
aa(lp1897
g1227
aI14
aa(lp1898
g1229
aI48
aa(lp1899
g1231
aI8
aa(lp1900
g1233
aF0.9925434121760651
aa(lp1901
g1235
aI65
aatp1902
Rp1903
ag312
((lp1904
(lp1905
g1225
aF0.7646572816333626
aa(lp1906
g1227
aI2
aa(lp1907
g1229
aI34
aa(lp1908
g1231
aI2
aa(lp1909
g1233
aF0.22876222127045265
aa(lp1910
g1235
aI55
aatp1911
Rp1912
ag312
((lp1913
(lp1914
g1225
aF0.8317353363415838
aa(lp1915
g1227
aI14
aa(lp1916
g1229
aI48
aa(lp1917
g1231
aI8
aa(lp1918
g1233
aF0.8824790008318577
aa(lp1919
g1235
aI65
aatp1920
Rp1921
ag312
((lp1922
(lp1923
g1225
aF0.8317353363415838
aa(lp1924
g1227
aI18
aa(lp1925
g1229
aI8
aa(lp1926
g1231
aI12
aa(lp1927
g1233
aF0.8824790008318577
aa(lp1928
g1235
aI55
aatp1929
Rp1930
ag312
((lp1931
(lp1932
g1225
aF0.7646572816333626
aa(lp1933
g1227
aI18
aa(lp1934
g1229
aI46
aa(lp1935
g1231
aI1
aa(lp1936
g1233
aF0.22876222127045265
aa(lp1937
g1235
aI60
aatp1938
Rp1939
ag312
((lp1940
(lp1941
g1225
aF0.8392021959059471
aa(lp1942
g1227
aI12
aa(lp1943
g1229
aI17
aa(lp1944
g1231
aI5
aa(lp1945
g1233
aF0.9925434121760651
aa(lp1946
g1235
aI54
aatp1947
Rp1948
ag312
((lp1949
(lp1950
g1225
aF0.5102309823738044
aa(lp1951
g1227
aI13
aa(lp1952
g1229
aI32
aa(lp1953
g1231
aI10
aa(lp1954
g1233
aF0.7974042475543028
aa(lp1955
g1235
aI51
aatp1956
Rp1957
ag312
((lp1958
(lp1959
g1225
aF0.8317353363415838
aa(lp1960
g1227
aI20
aa(lp1961
g1229
aI42
aa(lp1962
g1231
aI7
aa(lp1963
g1233
aF0.8824790008318577
aa(lp1964
g1235
aI55
aatp1965
Rp1966
ag312
((lp1967
(lp1968
g1225
aF0.7646572816333626
aa(lp1969
g1227
aI7
aa(lp1970
g1229
aI45
aa(lp1971
g1231
aI12
aa(lp1972
g1233
aF0.22876222127045265
aa(lp1973
g1235
aI97
aatp1974
Rp1975
ag312
((lp1976
(lp1977
g1225
aF0.7646572816333626
aa(lp1978
g1227
aI2
aa(lp1979
g1229
aI23
aa(lp1980
g1231
aI15
aa(lp1981
g1233
aF0.22876222127045265
aa(lp1982
g1235
aI98
aatp1983
Rp1984
ag312
((lp1985
(lp1986
g1225
aF0.8392021959059471
aa(lp1987
g1227
aI14
aa(lp1988
g1229
aI48
aa(lp1989
g1231
aI8
aa(lp1990
g1233
aF0.9925434121760651
aa(lp1991
g1235
aI65
aatp1992
Rp1993
ag312
((lp1994
(lp1995
g1225
aF0.7646572816333626
aa(lp1996
g1227
aI18
aa(lp1997
g1229
aI9
aa(lp1998
g1231
aI11
aa(lp1999
g1233
aF0.22876222127045265
aa(lp2000
g1235
aI90
aatp2001
Rp2002
ag312
((lp2003
(lp2004
g1225
aF0.8392021959059471
aa(lp2005
g1227
aI20
aa(lp2006
g1229
aI16
aa(lp2007
g1231
aI12
aa(lp2008
g1233
aF0.9925434121760651
aa(lp2009
g1235
aI72
aatp2010
Rp2011
ag312
((lp2012
(lp2013
g1225
aF0.8392021959059471
aa(lp2014
g1227
aI20
aa(lp2015
g1229
aI42
aa(lp2016
g1231
aI7
aa(lp2017
g1233
aF0.9925434121760651
aa(lp2018
g1235
aI55
aatp2019
Rp2020
ag312
((lp2021
(lp2022
g1225
aF0.8317353363415838
aa(lp2023
g1227
aI14
aa(lp2024
g1229
aI48
aa(lp2025
g1231
aI8
aa(lp2026
g1233
aF0.8824790008318577
aa(lp2027
g1235
aI65
aatp2028
Rp2029
ag312
((lp2030
(lp2031
g1225
aF0.7646572816333626
aa(lp2032
g1227
aI3
aa(lp2033
g1229
aI29
aa(lp2034
g1231
aI2
aa(lp2035
g1233
aF0.22876222127045265
aa(lp2036
g1235
aI53
aatp2037
Rp2038
ag312
((lp2039
(lp2040
g1225
aF0.8392021959059471
aa(lp2041
g1227
aI20
aa(lp2042
g1229
aI16
aa(lp2043
g1231
aI12
aa(lp2044
g1233
aF0.9925434121760651
aa(lp2045
g1235
aI72
aatp2046
Rp2047
ag312
((lp2048
(lp2049
g1225
aF0.7646572816333626
aa(lp2050
g1227
aI2
aa(lp2051
g1229
aI23
aa(lp2052
g1231
aI15
aa(lp2053
g1233
aF0.22876222127045265
aa(lp2054
g1235
aI98
aatp2055
Rp2056
ag312
((lp2057
(lp2058
g1225
aF0.8317353363415838
aa(lp2059
g1227
aI16
aa(lp2060
g1229
aI22
aa(lp2061
g1231
aI6
aa(lp2062
g1233
aF0.8824790008318577
aa(lp2063
g1235
aI50
aatp2064
Rp2065
ag312
((lp2066
(lp2067
g1225
aF0.8317353363415838
aa(lp2068
g1227
aI14
aa(lp2069
g1229
aI16
aa(lp2070
g1231
aI12
aa(lp2071
g1233
aF0.8824790008318577
aa(lp2072
g1235
aI93
aatp2073
Rp2074
ag312
((lp2075
(lp2076
g1225
aF0.8317353363415838
aa(lp2077
g1227
aI14
aa(lp2078
g1229
aI16
aa(lp2079
g1231
aI12
aa(lp2080
g1233
aF0.8824790008318577
aa(lp2081
g1235
aI93
aatp2082
Rp2083
ag312
((lp2084
(lp2085
g1225
aF0.8317353363415838
aa(lp2086
g1227
aI16
aa(lp2087
g1229
aI22
aa(lp2088
g1231
aI6
aa(lp2089
g1233
aF0.8824790008318577
aa(lp2090
g1235
aI50
aatp2091
Rp2092
ag312
((lp2093
(lp2094
g1225
aF0.8392021959059471
aa(lp2095
g1227
aI12
aa(lp2096
g1229
aI33
aa(lp2097
g1231
aI4
aa(lp2098
g1233
aF0.9925434121760651
aa(lp2099
g1235
aI93
aatp2100
Rp2101
ag312
((lp2102
(lp2103
g1225
aF0.8317353363415838
aa(lp2104
g1227
aI18
aa(lp2105
g1229
aI8
aa(lp2106
g1231
aI12
aa(lp2107
g1233
aF0.8824790008318577
aa(lp2108
g1235
aI55
aatp2109
Rp2110
ag312
((lp2111
(lp2112
g1225
aF0.7646572816333626
aa(lp2113
g1227
aI2
aa(lp2114
g1229
aI34
aa(lp2115
g1231
aI2
aa(lp2116
g1233
aF0.22876222127045265
aa(lp2117
g1235
aI55
aatp2118
Rp2119
ag312
((lp2120
(lp2121
g1225
aF0.8317353363415838
aa(lp2122
g1227
aI7
aa(lp2123
g1229
aI18
aa(lp2124
g1231
aI11
aa(lp2125
g1233
aF0.8824790008318577
aa(lp2126
g1235
aI79
aatp2127
Rp2128
aaF1799.3677690029144
asS'run_dectreereg'
p2129
(lp2130
(lp2131
g4
(g8
S'\x11~\xc9\x90\xf7\x0e\x04@'
p2132
tp2133
Rp2134
ag4
(g8
S'Y\xe8%u\xbe\x05\x07@'
p2135
tp2136
Rp2137
ag4
(g8
S'2\xf7f\x13&\xe4\x00@'
p2138
tp2139
Rp2140
ag4
(g8
S'\xbb\x16X0\x1a\xfe\x01@'
p2141
tp2142
Rp2143
ag4
(g8
S'\xfch\xb3\n?;\xff?'
p2144
tp2145
Rp2146
ag4
(g8
S'\xa3\x1d"\xf9/[\x04@'
p2147
tp2148
Rp2149
ag4
(g8
S'\xe8\xa5\xde\x1d\x1e\n\xfe?'
p2150
tp2151
Rp2152
ag4
(g8
S"l\xadc'fP\x00@"
p2153
tp2154
Rp2155
ag4
(g8
S"'\xc1?\xbb\xf7c\x00@"
p2156
tp2157
Rp2158
ag4
(g8
S'W\x98\xaaCqw\x06@'
p2159
tp2160
Rp2161
ag4
(g8
S'\xdeYNE\xde\xe1\xfe?'
p2162
tp2163
Rp2164
ag4
(g8
S'\xe0\xd7\xfa\n*;\x0b@'
p2165
tp2166
Rp2167
ag4
(g8
S'\x99.\x1a\xa9j^\x05@'
p2168
tp2169
Rp2170
ag4
(g8
S'K\xee\xe4T\xbd\x99\x05@'
p2171
tp2172
Rp2173
ag4
(g8
S'0\xc3B\x0ej\x14\x00@'
p2174
tp2175
Rp2176
ag4
(g8
S'\xeb&\xb9\x8e\xf0g\xf8?'
p2177
tp2178
Rp2179
ag4
(g8
S'PiM\xd9&\x81\xf7?'
p2180
tp2181
Rp2182
ag4
(g8
S'\x8a\xccW\x9c6\x90\x05@'
p2183
tp2184
Rp2185
ag4
(g8
S'\xde\x15\xa1\xaa\xd8|\x06@'
p2186
tp2187
Rp2188
ag4
(g8
S't\xd7\xf165\xe0\x04@'
p2189
tp2190
Rp2191
ag4
(g8
S'~r\x1c9/:\x02@'
p2192
tp2193
Rp2194
ag4
(g8
S'\x91@f\xb5\x17b\xf9?'
p2195
tp2196
Rp2197
ag4
(g8
S'\xda&\x0f\xe96\x93\x04@'
p2198
tp2199
Rp2200
ag4
(g8
S'\x0fr6W\xc4\xb8\x08@'
p2201
tp2202
Rp2203
ag4
(g8
S'\xbf\xb4 \x85\xa7\x87\xfc?'
p2204
tp2205
Rp2206
ag4
(g8
S'(\x16\x82\xe8>O\x01@'
p2207
tp2208
Rp2209
ag4
(g8
S'\xb2:Nj\xba\xe3\x01@'
p2210
tp2211
Rp2212
ag4
(g8
S'\xbej8C\xd7\x9e\x00@'
p2213
tp2214
Rp2215
ag4
(g8
S'\x7f\r8,\x92\xe1\xf3?'
p2216
tp2217
Rp2218
ag4
(g8
S'K\xec\xe5\xd1\x9b{\x04@'
p2219
tp2220
Rp2221
ag4
(g8
S'\x0c8\x11-\xce\x1f\xfc?'
p2222
tp2223
Rp2224
ag4
(g8
S'\xf4!g\x8f\x86\x97\xfb?'
p2225
tp2226
Rp2227
ag4
(g8
S'iz\x03\x17\x0b:\x02@'
p2228
tp2229
Rp2230
ag4
(g8
S'\xde\xdd\xd9{\xc8n\x01@'
p2231
tp2232
Rp2233
ag4
(g8
S'\x8a"01\xdf)\x02@'
p2234
tp2235
Rp2236
ag4
(g8
S'\x9b\x0b=n\x01!\x01@'
p2237
tp2238
Rp2239
ag4
(g8
S'\n\x8a\x9f\xc3l]\x03@'
p2240
tp2241
Rp2242
ag4
(g8
S'6\xd6m\xe8\xb7@\x02@'
p2243
tp2244
Rp2245
ag4
(g8
S'\x01\x8eu\x854v\x02@'
p2246
tp2247
Rp2248
ag4
(g8
S'\x17\xb7TIo\x8a\x01@'
p2249
tp2250
Rp2251
ag4
(g8
S'\xda\xe6D\x80>s\x07@'
p2252
tp2253
Rp2254
ag4
(g8
S's\x08v\x0c\xc2\xc4\xfc?'
p2255
tp2256
Rp2257
ag4
(g8
S'f\x15\x9c\x82q\x10\xf5?'
p2258
tp2259
Rp2260
ag4
(g8
S'\xd0>\x9f5t\x01\xfb?'
p2261
tp2262
Rp2263
ag4
(g8
S'\nl;\xcd\xae\x93\xfa?'
p2264
tp2265
Rp2266
ag4
(g8
S'\xa7\xe5\x01\xd3\xe3\xaa\xfd?'
p2267
tp2268
Rp2269
ag4
(g8
S'\xf6W~\x98U\xfe\x03@'
p2270
tp2271
Rp2272
ag4
(g8
S'\t\xad<\xd8\xf9\xe3\x04@'
p2273
tp2274
Rp2275
ag4
(g8
S'>\xadW3\x05\x14\xf5?'
p2276
tp2277
Rp2278
ag4
(g8
S'\xcfy\x0c\x96#5\xfb?'
p2279
tp2280
Rp2281
ag4
(g8
S'HN\x06\xf0\xda\x8a\xfc?'
p2282
tp2283
Rp2284
ag4
(g8
S'\xa8\x88<\xbd\xc2\xf6\x02@'
p2285
tp2286
Rp2287
ag4
(g8
S'6\xaa\xb72\x10\xd5\xec?'
p2288
tp2289
Rp2290
ag4
(g8
S'\x06\xa5t*.\x85\x02@'
p2291
tp2292
Rp2293
ag4
(g8
S'\x9d\x15\x10\xef\xb2\xe1\xf7?'
p2294
tp2295
Rp2296
ag4
(g8
S'\xdf\xe7\xc3\x96\xad\x0b\x01@'
p2297
tp2298
Rp2299
ag4
(g8
S'q\x8a\xf6\x8c\xf7J\x08@'
p2300
tp2301
Rp2302
ag4
(g8
S"\xda\\\xa6'4\xa7\x08@"
p2303
tp2304
Rp2305
ag4
(g8
S'\x0f\xa9\xd1O\x0f\xb2\xf8?'
p2306
tp2307
Rp2308
ag4
(g8
S'\xc5\xf5\x11\x96\x9c\xb1\xf7?'
p2309
tp2310
Rp2311
ag4
(g8
S'\xbd\x94#\xb0`\xf4\x02@'
p2312
tp2313
Rp2314
ag4
(g8
S'\xf7\xbf\x80\xc2\x83|\xff?'
p2315
tp2316
Rp2317
ag4
(g8
S'8\x01D~\xd5n\x06@'
p2318
tp2319
Rp2320
ag4
(g8
S'~\xfd\xcc\xee`:\x06@'
p2321
tp2322
Rp2323
ag4
(g8
S'\xb3\xc3\x03\xd4}x\x02@'
p2324
tp2325
Rp2326
ag4
(g8
S'\x91`\x8e5\xd5Q\x00@'
p2327
tp2328
Rp2329
ag4
(g8
S'\x94\x9d1\xffi\x08\x05@'
p2330
tp2331
Rp2332
ag4
(g8
S'\x9f_-\x06\xee~\xf7?'
p2333
tp2334
Rp2335
ag4
(g8
S'\x8a&\x8d\xb3\x13Q\x05@'
p2336
tp2337
Rp2338
ag4
(g8
S'\xbeeX8]\xec\x03@'
p2339
tp2340
Rp2341
ag4
(g8
S'\xfb\x97m\\\x93T\xfc?'
p2342
tp2343
Rp2344
ag4
(g8
S'oBS\x97\x0f\xa3\x01@'
p2345
tp2346
Rp2347
ag4
(g8
S'hc\x8b\x185\xe9\xfb?'
p2348
tp2349
Rp2350
ag4
(g8
S'\xceB\xfcx\xae\xc5\x02@'
p2351
tp2352
Rp2353
ag4
(g8
S'z6\t\xd5\x82\xad\xff?'
p2354
tp2355
Rp2356
ag4
(g8
S"'L\xcd\xfc\x06\xf3\x04@"
p2357
tp2358
Rp2359
ag4
(g8
S'\xfc:\xde\x07B\xa2\x01@'
p2360
tp2361
Rp2362
ag4
(g8
S'\xca\xac\xe5\x16\xd9\xe6\x07@'
p2363
tp2364
Rp2365
ag4
(g8
S'F\xca\x01\xd3\xf8\xd7\x02@'
p2366
tp2367
Rp2368
ag4
(g8
S'S~bo\xaa#\xf7?'
p2369
tp2370
Rp2371
ag4
(g8
S'\x98\x02\xe7\xf1\xda\n\x00@'
p2372
tp2373
Rp2374
ag4
(g8
S'z\x94O\xdc\xf2\xd8\xff?'
p2375
tp2376
Rp2377
ag4
(g8
S'@z\xb9\xc0\x8c\x9a\xf9?'
p2378
tp2379
Rp2380
ag4
(g8
S'\x17A\x98\x81<\x8f\xff?'
p2381
tp2382
Rp2383
ag4
(g8
S'g`\x9f8\xdc\x12\x04@'
p2384
tp2385
Rp2386
ag4
(g8
S'\x98\x9a\xdb~\xe5\xd3\x02@'
p2387
tp2388
Rp2389
ag4
(g8
S'@\xb2\x1f\xd9^\xe6\x01@'
p2390
tp2391
Rp2392
ag4
(g8
S'\xcfX\xd01ZZ\x03@'
p2393
tp2394
Rp2395
ag4
(g8
S'\x15<\xd3;|\x89\x06@'
p2396
tp2397
Rp2398
ag4
(g8
S'\\\xb1d_\xefI\x02@'
p2399
tp2400
Rp2401
ag4
(g8
S'(yO\xeb&\xf1\x02@'
p2402
tp2403
Rp2404
ag4
(g8
S',6\xc5wQR\x04@'
p2405
tp2406
Rp2407
ag4
(g8
S'xg\xf4p\xf2\xce\x03@'
p2408
tp2409
Rp2410
ag4
(g8
S'\xd3\xe5L\x0e\t\xb4\x04@'
p2411
tp2412
Rp2413
ag4
(g8
S'\xaa\xe1r\xb5\xab\xe3\x05@'
p2414
tp2415
Rp2416
ag4
(g8
S'5G\xd1\xb70\xfa\xff?'
p2417
tp2418
Rp2419
ag4
(g8
S's.!\xebk\xb7\xfe?'
p2420
tp2421
Rp2422
ag4
(g8
S'\xc9\xd4f p\xae\x06@'
p2423
tp2424
Rp2425
ag4
(g8
S'\xfa\xff\xc9\x0e\x98>\x07@'
p2426
tp2427
Rp2428
ag4
(g8
S'\xd0\x1f\xfc.@e\xe9?'
p2429
tp2430
Rp2431
aa(lp2432
g312
((lp2433
(lp2434
g1225
aF0.9926179780543045
aa(lp2435
g1227
aI12
aa(lp2436
g1233
aF0.12088995980580641
aa(lp2437
S'max_depth'
p2438
aI5
aa(lp2439
g1231
aI5
aatp2440
Rp2441
ag312
((lp2442
(lp2443
g1225
aF0.42789540982689017
aa(lp2444
g1227
aI13
aa(lp2445
g1233
aF0.22169166627303505
aa(lp2446
g2438
aI18
aa(lp2447
g1231
aI40
aatp2448
Rp2449
ag312
((lp2450
(lp2451
g1225
aF0.7140798519983268
aa(lp2452
g1227
aI18
aa(lp2453
g1233
aF0.4221069999614152
aa(lp2454
g2438
aI5
aa(lp2455
g1231
aI26
aatp2456
Rp2457
ag312
((lp2458
(lp2459
g1225
aF0.7140798519983268
aa(lp2460
g1227
aI18
aa(lp2461
g1233
aF0.4221069999614152
aa(lp2462
g2438
aI5
aa(lp2463
g1231
aI26
aatp2464
Rp2465
ag312
((lp2466
(lp2467
g1225
aF0.9926179780543045
aa(lp2468
g1227
aI18
aa(lp2469
g1233
aF0.12088995980580641
aa(lp2470
g2438
aI14
aa(lp2471
g1231
aI25
aatp2472
Rp2473
ag312
((lp2474
(lp2475
g1225
aF0.7140798519983268
aa(lp2476
g1227
aI18
aa(lp2477
g1233
aF0.4221069999614152
aa(lp2478
g2438
aI5
aa(lp2479
g1231
aI26
aatp2480
Rp2481
ag312
((lp2482
(lp2483
g1225
aF0.9926179780543045
aa(lp2484
g1227
aI18
aa(lp2485
g1233
aF0.12088995980580641
aa(lp2486
g2438
aI14
aa(lp2487
g1231
aI25
aatp2488
Rp2489
ag312
((lp2490
(lp2491
g1225
aF0.7140798519983268
aa(lp2492
g1227
aI18
aa(lp2493
g1233
aF0.4221069999614152
aa(lp2494
g2438
aI5
aa(lp2495
g1231
aI26
aatp2496
Rp2497
ag312
((lp2498
(lp2499
g1225
aF0.9926179780543045
aa(lp2500
g1227
aI16
aa(lp2501
g1233
aF0.12088995980580641
aa(lp2502
g2438
aI9
aa(lp2503
g1231
aI13
aatp2504
Rp2505
ag312
((lp2506
(lp2507
g1225
aF0.9926179780543045
aa(lp2508
g1227
aI7
aa(lp2509
g1233
aF0.12088995980580641
aa(lp2510
g2438
aI18
aa(lp2511
g1231
aI31
aatp2512
Rp2513
ag312
((lp2514
(lp2515
g1225
aF0.7140798519983268
aa(lp2516
g1227
aI12
aa(lp2517
g1233
aF0.4221069999614152
aa(lp2518
g2438
aI13
aa(lp2519
g1231
aI31
aatp2520
Rp2521
ag312
((lp2522
(lp2523
g1225
aF0.9926179780543045
aa(lp2524
g1227
aI16
aa(lp2525
g1233
aF0.12088995980580641
aa(lp2526
g2438
aI9
aa(lp2527
g1231
aI13
aatp2528
Rp2529
ag312
((lp2530
(lp2531
g1225
aF0.9926179780543045
aa(lp2532
g1227
aI20
aa(lp2533
g1233
aF0.12088995980580641
aa(lp2534
g2438
aI12
aa(lp2535
g1231
aI9
aatp2536
Rp2537
ag312
((lp2538
(lp2539
g1225
aF0.837407452880671
aa(lp2540
g1227
aI4
aa(lp2541
g1233
aF0.762280082457942
aa(lp2542
g2438
aI15
aa(lp2543
g1231
aI9
aatp2544
Rp2545
ag312
((lp2546
(lp2547
g1225
aF0.7140798519983268
aa(lp2548
g1227
aI19
aa(lp2549
g1233
aF0.4221069999614152
aa(lp2550
g2438
aI17
aa(lp2551
g1231
aI34
aatp2552
Rp2553
ag312
((lp2554
(lp2555
g1225
aF0.7140798519983268
aa(lp2556
g1227
aI16
aa(lp2557
g1233
aF0.4221069999614152
aa(lp2558
g2438
aI7
aa(lp2559
g1231
aI11
aatp2560
Rp2561
ag312
((lp2562
(lp2563
g1225
aF0.7140798519983268
aa(lp2564
g1227
aI19
aa(lp2565
g1233
aF0.4221069999614152
aa(lp2566
g2438
aI11
aa(lp2567
g1231
aI11
aatp2568
Rp2569
ag312
((lp2570
(lp2571
g1225
aF0.7140798519983268
aa(lp2572
g1227
aI18
aa(lp2573
g1233
aF0.4221069999614152
aa(lp2574
g2438
aI5
aa(lp2575
g1231
aI26
aatp2576
Rp2577
ag312
((lp2578
(lp2579
g1225
aF0.9926179780543045
aa(lp2580
g1227
aI7
aa(lp2581
g1233
aF0.12088995980580641
aa(lp2582
g2438
aI18
aa(lp2583
g1231
aI31
aatp2584
Rp2585
ag312
((lp2586
(lp2587
g1225
aF0.7140798519983268
aa(lp2588
g1227
aI19
aa(lp2589
g1233
aF0.4221069999614152
aa(lp2590
g2438
aI17
aa(lp2591
g1231
aI34
aatp2592
Rp2593
ag312
((lp2594
(lp2595
g1225
aF0.7140798519983268
aa(lp2596
g1227
aI19
aa(lp2597
g1233
aF0.4221069999614152
aa(lp2598
g2438
aI17
aa(lp2599
g1231
aI34
aatp2600
Rp2601
ag312
((lp2602
(lp2603
g1225
aF0.9926179780543045
aa(lp2604
g1227
aI18
aa(lp2605
g1233
aF0.12088995980580641
aa(lp2606
g2438
aI7
aa(lp2607
g1231
aI37
aatp2608
Rp2609
ag312
((lp2610
(lp2611
g1225
aF0.9926179780543045
aa(lp2612
g1227
aI18
aa(lp2613
g1233
aF0.12088995980580641
aa(lp2614
g2438
aI7
aa(lp2615
g1231
aI37
aatp2616
Rp2617
ag312
((lp2618
(lp2619
g1225
aF0.837407452880671
aa(lp2620
g1227
aI12
aa(lp2621
g1233
aF0.762280082457942
aa(lp2622
g2438
aI5
aa(lp2623
g1231
aI5
aatp2624
Rp2625
ag312
((lp2626
(lp2627
g1225
aF0.42789540982689017
aa(lp2628
g1227
aI18
aa(lp2629
g1233
aF0.22169166627303505
aa(lp2630
g2438
aI12
aa(lp2631
g1231
aI10
aatp2632
Rp2633
ag312
((lp2634
(lp2635
g1225
aF0.9926179780543045
aa(lp2636
g1227
aI16
aa(lp2637
g1233
aF0.12088995980580641
aa(lp2638
g2438
aI9
aa(lp2639
g1231
aI13
aatp2640
Rp2641
ag312
((lp2642
(lp2643
g1225
aF0.9926179780543045
aa(lp2644
g1227
aI16
aa(lp2645
g1233
aF0.12088995980580641
aa(lp2646
g2438
aI9
aa(lp2647
g1231
aI13
aatp2648
Rp2649
ag312
((lp2650
(lp2651
g1225
aF0.9926179780543045
aa(lp2652
g1227
aI20
aa(lp2653
g1233
aF0.12088995980580641
aa(lp2654
g2438
aI12
aa(lp2655
g1231
aI9
aatp2656
Rp2657
ag312
((lp2658
(lp2659
g1225
aF0.9926179780543045
aa(lp2660
g1227
aI18
aa(lp2661
g1233
aF0.12088995980580641
aa(lp2662
g2438
aI7
aa(lp2663
g1231
aI37
aatp2664
Rp2665
ag312
((lp2666
(lp2667
g1225
aF0.7140798519983268
aa(lp2668
g1227
aI19
aa(lp2669
g1233
aF0.4221069999614152
aa(lp2670
g2438
aI17
aa(lp2671
g1231
aI34
aatp2672
Rp2673
ag312
((lp2674
(lp2675
g1225
aF0.9926179780543045
aa(lp2676
g1227
aI7
aa(lp2677
g1233
aF0.12088995980580641
aa(lp2678
g2438
aI18
aa(lp2679
g1231
aI31
aatp2680
Rp2681
ag312
((lp2682
(lp2683
g1225
aF0.7140798519983268
aa(lp2684
g1227
aI19
aa(lp2685
g1233
aF0.4221069999614152
aa(lp2686
g2438
aI17
aa(lp2687
g1231
aI34
aatp2688
Rp2689
ag312
((lp2690
(lp2691
g1225
aF0.837407452880671
aa(lp2692
g1227
aI4
aa(lp2693
g1233
aF0.762280082457942
aa(lp2694
g2438
aI15
aa(lp2695
g1231
aI9
aatp2696
Rp2697
ag312
((lp2698
(lp2699
g1225
aF0.9926179780543045
aa(lp2700
g1227
aI7
aa(lp2701
g1233
aF0.12088995980580641
aa(lp2702
g2438
aI12
aa(lp2703
g1231
aI23
aatp2704
Rp2705
ag312
((lp2706
(lp2707
g1225
aF0.7140798519983268
aa(lp2708
g1227
aI19
aa(lp2709
g1233
aF0.4221069999614152
aa(lp2710
g2438
aI17
aa(lp2711
g1231
aI34
aatp2712
Rp2713
ag312
((lp2714
(lp2715
g1225
aF0.7140798519983268
aa(lp2716
g1227
aI6
aa(lp2717
g1233
aF0.4221069999614152
aa(lp2718
g2438
aI10
aa(lp2719
g1231
aI6
aatp2720
Rp2721
ag312
((lp2722
(lp2723
g1225
aF0.9926179780543045
aa(lp2724
g1227
aI16
aa(lp2725
g1233
aF0.12088995980580641
aa(lp2726
g2438
aI9
aa(lp2727
g1231
aI13
aatp2728
Rp2729
ag312
((lp2730
(lp2731
g1225
aF0.7140798519983268
aa(lp2732
g1227
aI19
aa(lp2733
g1233
aF0.4221069999614152
aa(lp2734
g2438
aI17
aa(lp2735
g1231
aI34
aatp2736
Rp2737
ag312
((lp2738
(lp2739
g1225
aF0.9926179780543045
aa(lp2740
g1227
aI7
aa(lp2741
g1233
aF0.12088995980580641
aa(lp2742
g2438
aI18
aa(lp2743
g1231
aI31
aatp2744
Rp2745
ag312
((lp2746
(lp2747
g1225
aF0.9926179780543045
aa(lp2748
g1227
aI16
aa(lp2749
g1233
aF0.12088995980580641
aa(lp2750
g2438
aI9
aa(lp2751
g1231
aI13
aatp2752
Rp2753
ag312
((lp2754
(lp2755
g1225
aF0.7140798519983268
aa(lp2756
g1227
aI18
aa(lp2757
g1233
aF0.4221069999614152
aa(lp2758
g2438
aI5
aa(lp2759
g1231
aI26
aatp2760
Rp2761
ag312
((lp2762
(lp2763
g1225
aF0.42789540982689017
aa(lp2764
g1227
aI18
aa(lp2765
g1233
aF0.22169166627303505
aa(lp2766
g2438
aI12
aa(lp2767
g1231
aI10
aatp2768
Rp2769
ag312
((lp2770
(lp2771
g1225
aF0.7140798519983268
aa(lp2772
g1227
aI19
aa(lp2773
g1233
aF0.4221069999614152
aa(lp2774
g2438
aI17
aa(lp2775
g1231
aI34
aatp2776
Rp2777
ag312
((lp2778
(lp2779
g1225
aF0.9926179780543045
aa(lp2780
g1227
aI19
aa(lp2781
g1233
aF0.12088995980580641
aa(lp2782
g2438
aI5
aa(lp2783
g1231
aI38
aatp2784
Rp2785
ag312
((lp2786
(lp2787
g1225
aF0.7140798519983268
aa(lp2788
g1227
aI18
aa(lp2789
g1233
aF0.4221069999614152
aa(lp2790
g2438
aI5
aa(lp2791
g1231
aI26
aatp2792
Rp2793
ag312
((lp2794
(lp2795
g1225
aF0.7140798519983268
aa(lp2796
g1227
aI19
aa(lp2797
g1233
aF0.4221069999614152
aa(lp2798
g2438
aI17
aa(lp2799
g1231
aI34
aatp2800
Rp2801
ag312
((lp2802
(lp2803
g1225
aF0.9926179780543045
aa(lp2804
g1227
aI18
aa(lp2805
g1233
aF0.12088995980580641
aa(lp2806
g2438
aI14
aa(lp2807
g1231
aI25
aatp2808
Rp2809
ag312
((lp2810
(lp2811
g1225
aF0.7140798519983268
aa(lp2812
g1227
aI19
aa(lp2813
g1233
aF0.4221069999614152
aa(lp2814
g2438
aI17
aa(lp2815
g1231
aI34
aatp2816
Rp2817
ag312
((lp2818
(lp2819
g1225
aF0.7140798519983268
aa(lp2820
g1227
aI16
aa(lp2821
g1233
aF0.4221069999614152
aa(lp2822
g2438
aI7
aa(lp2823
g1231
aI11
aatp2824
Rp2825
ag312
((lp2826
(lp2827
g1225
aF0.9926179780543045
aa(lp2828
g1227
aI16
aa(lp2829
g1233
aF0.12088995980580641
aa(lp2830
g2438
aI9
aa(lp2831
g1231
aI13
aatp2832
Rp2833
ag312
((lp2834
(lp2835
g1225
aF0.837407452880671
aa(lp2836
g1227
aI4
aa(lp2837
g1233
aF0.762280082457942
aa(lp2838
g2438
aI15
aa(lp2839
g1231
aI9
aatp2840
Rp2841
ag312
((lp2842
(lp2843
g1225
aF0.9926179780543045
aa(lp2844
g1227
aI19
aa(lp2845
g1233
aF0.12088995980580641
aa(lp2846
g2438
aI5
aa(lp2847
g1231
aI38
aatp2848
Rp2849
ag312
((lp2850
(lp2851
g1225
aF0.7140798519983268
aa(lp2852
g1227
aI19
aa(lp2853
g1233
aF0.4221069999614152
aa(lp2854
g2438
aI17
aa(lp2855
g1231
aI34
aatp2856
Rp2857
ag312
((lp2858
(lp2859
g1225
aF0.7140798519983268
aa(lp2860
g1227
aI19
aa(lp2861
g1233
aF0.4221069999614152
aa(lp2862
g2438
aI17
aa(lp2863
g1231
aI34
aatp2864
Rp2865
ag312
((lp2866
(lp2867
g1225
aF0.837407452880671
aa(lp2868
g1227
aI16
aa(lp2869
g1233
aF0.762280082457942
aa(lp2870
g2438
aI9
aa(lp2871
g1231
aI13
aatp2872
Rp2873
ag312
((lp2874
(lp2875
g1225
aF0.7140798519983268
aa(lp2876
g1227
aI18
aa(lp2877
g1233
aF0.4221069999614152
aa(lp2878
g2438
aI5
aa(lp2879
g1231
aI26
aatp2880
Rp2881
ag312
((lp2882
(lp2883
g1225
aF0.9926179780543045
aa(lp2884
g1227
aI4
aa(lp2885
g1233
aF0.12088995980580641
aa(lp2886
g2438
aI15
aa(lp2887
g1231
aI9
aatp2888
Rp2889
ag312
((lp2890
(lp2891
g1225
aF0.9926179780543045
aa(lp2892
g1227
aI16
aa(lp2893
g1233
aF0.12088995980580641
aa(lp2894
g2438
aI9
aa(lp2895
g1231
aI13
aatp2896
Rp2897
ag312
((lp2898
(lp2899
g1225
aF0.7140798519983268
aa(lp2900
g1227
aI16
aa(lp2901
g1233
aF0.4221069999614152
aa(lp2902
g2438
aI7
aa(lp2903
g1231
aI11
aatp2904
Rp2905
ag312
((lp2906
(lp2907
g1225
aF0.7140798519983268
aa(lp2908
g1227
aI19
aa(lp2909
g1233
aF0.4221069999614152
aa(lp2910
g2438
aI17
aa(lp2911
g1231
aI34
aatp2912
Rp2913
ag312
((lp2914
(lp2915
g1225
aF0.837407452880671
aa(lp2916
g1227
aI20
aa(lp2917
g1233
aF0.762280082457942
aa(lp2918
g2438
aI12
aa(lp2919
g1231
aI9
aatp2920
Rp2921
ag312
((lp2922
(lp2923
g1225
aF0.9926179780543045
aa(lp2924
g1227
aI18
aa(lp2925
g1233
aF0.12088995980580641
aa(lp2926
g2438
aI14
aa(lp2927
g1231
aI25
aatp2928
Rp2929
ag312
((lp2930
(lp2931
g1225
aF0.9926179780543045
aa(lp2932
g1227
aI16
aa(lp2933
g1233
aF0.12088995980580641
aa(lp2934
g2438
aI9
aa(lp2935
g1231
aI13
aatp2936
Rp2937
ag312
((lp2938
(lp2939
g1225
aF0.7140798519983268
aa(lp2940
g1227
aI18
aa(lp2941
g1233
aF0.4221069999614152
aa(lp2942
g2438
aI5
aa(lp2943
g1231
aI26
aatp2944
Rp2945
ag312
((lp2946
(lp2947
g1225
aF0.9926179780543045
aa(lp2948
g1227
aI7
aa(lp2949
g1233
aF0.12088995980580641
aa(lp2950
g2438
aI12
aa(lp2951
g1231
aI23
aatp2952
Rp2953
ag312
((lp2954
(lp2955
g1225
aF0.7140798519983268
aa(lp2956
g1227
aI19
aa(lp2957
g1233
aF0.4221069999614152
aa(lp2958
g2438
aI17
aa(lp2959
g1231
aI34
aatp2960
Rp2961
ag312
((lp2962
(lp2963
g1225
aF0.42789540982689017
aa(lp2964
g1227
aI13
aa(lp2965
g1233
aF0.22169166627303505
aa(lp2966
g2438
aI18
aa(lp2967
g1231
aI40
aatp2968
Rp2969
ag312
((lp2970
(lp2971
g1225
aF0.7140798519983268
aa(lp2972
g1227
aI18
aa(lp2973
g1233
aF0.4221069999614152
aa(lp2974
g2438
aI5
aa(lp2975
g1231
aI26
aatp2976
Rp2977
ag312
((lp2978
(lp2979
g1225
aF0.837407452880671
aa(lp2980
g1227
aI16
aa(lp2981
g1233
aF0.762280082457942
aa(lp2982
g2438
aI9
aa(lp2983
g1231
aI13
aatp2984
Rp2985
ag312
((lp2986
(lp2987
g1225
aF0.7140798519983268
aa(lp2988
g1227
aI19
aa(lp2989
g1233
aF0.4221069999614152
aa(lp2990
g2438
aI17
aa(lp2991
g1231
aI34
aatp2992
Rp2993
ag312
((lp2994
(lp2995
g1225
aF0.9926179780543045
aa(lp2996
g1227
aI4
aa(lp2997
g1233
aF0.12088995980580641
aa(lp2998
g2438
aI15
aa(lp2999
g1231
aI9
aatp3000
Rp3001
ag312
((lp3002
(lp3003
g1225
aF0.837407452880671
aa(lp3004
g1227
aI16
aa(lp3005
g1233
aF0.762280082457942
aa(lp3006
g2438
aI9
aa(lp3007
g1231
aI13
aatp3008
Rp3009
ag312
((lp3010
(lp3011
g1225
aF0.42789540982689017
aa(lp3012
g1227
aI18
aa(lp3013
g1233
aF0.22169166627303505
aa(lp3014
g2438
aI12
aa(lp3015
g1231
aI10
aatp3016
Rp3017
ag312
((lp3018
(lp3019
g1225
aF0.9926179780543045
aa(lp3020
g1227
aI16
aa(lp3021
g1233
aF0.12088995980580641
aa(lp3022
g2438
aI9
aa(lp3023
g1231
aI13
aatp3024
Rp3025
ag312
((lp3026
(lp3027
g1225
aF0.7140798519983268
aa(lp3028
g1227
aI19
aa(lp3029
g1233
aF0.4221069999614152
aa(lp3030
g2438
aI17
aa(lp3031
g1231
aI34
aatp3032
Rp3033
ag312
((lp3034
(lp3035
g1225
aF0.9926179780543045
aa(lp3036
g1227
aI4
aa(lp3037
g1233
aF0.12088995980580641
aa(lp3038
g2438
aI15
aa(lp3039
g1231
aI9
aatp3040
Rp3041
ag312
((lp3042
(lp3043
g1225
aF0.9926179780543045
aa(lp3044
g1227
aI18
aa(lp3045
g1233
aF0.12088995980580641
aa(lp3046
g2438
aI7
aa(lp3047
g1231
aI37
aatp3048
Rp3049
ag312
((lp3050
(lp3051
g1225
aF0.7140798519983268
aa(lp3052
g1227
aI12
aa(lp3053
g1233
aF0.4221069999614152
aa(lp3054
g2438
aI13
aa(lp3055
g1231
aI31
aatp3056
Rp3057
ag312
((lp3058
(lp3059
g1225
aF0.7140798519983268
aa(lp3060
g1227
aI18
aa(lp3061
g1233
aF0.4221069999614152
aa(lp3062
g2438
aI5
aa(lp3063
g1231
aI26
aatp3064
Rp3065
ag312
((lp3066
(lp3067
g1225
aF0.837407452880671
aa(lp3068
g1227
aI4
aa(lp3069
g1233
aF0.762280082457942
aa(lp3070
g2438
aI15
aa(lp3071
g1231
aI9
aatp3072
Rp3073
ag312
((lp3074
(lp3075
g1225
aF0.9926179780543045
aa(lp3076
g1227
aI16
aa(lp3077
g1233
aF0.12088995980580641
aa(lp3078
g2438
aI9
aa(lp3079
g1231
aI13
aatp3080
Rp3081
ag312
((lp3082
(lp3083
g1225
aF0.7140798519983268
aa(lp3084
g1227
aI18
aa(lp3085
g1233
aF0.4221069999614152
aa(lp3086
g2438
aI5
aa(lp3087
g1231
aI26
aatp3088
Rp3089
ag312
((lp3090
(lp3091
g1225
aF0.9926179780543045
aa(lp3092
g1227
aI16
aa(lp3093
g1233
aF0.12088995980580641
aa(lp3094
g2438
aI9
aa(lp3095
g1231
aI13
aatp3096
Rp3097
ag312
((lp3098
(lp3099
g1225
aF0.7140798519983268
aa(lp3100
g1227
aI6
aa(lp3101
g1233
aF0.4221069999614152
aa(lp3102
g2438
aI10
aa(lp3103
g1231
aI6
aatp3104
Rp3105
ag312
((lp3106
(lp3107
g1225
aF0.9926179780543045
aa(lp3108
g1227
aI16
aa(lp3109
g1233
aF0.12088995980580641
aa(lp3110
g2438
aI9
aa(lp3111
g1231
aI13
aatp3112
Rp3113
ag312
((lp3114
(lp3115
g1225
aF0.9926179780543045
aa(lp3116
g1227
aI20
aa(lp3117
g1233
aF0.12088995980580641
aa(lp3118
g2438
aI12
aa(lp3119
g1231
aI9
aatp3120
Rp3121
ag312
((lp3122
(lp3123
g1225
aF0.7140798519983268
aa(lp3124
g1227
aI19
aa(lp3125
g1233
aF0.4221069999614152
aa(lp3126
g2438
aI17
aa(lp3127
g1231
aI34
aatp3128
Rp3129
ag312
((lp3130
(lp3131
g1225
aF0.7243246320173747
aa(lp3132
g1227
aI14
aa(lp3133
g1233
aF0.9452706955539223
aa(lp3134
g2438
aI9
aa(lp3135
g1231
aI10
aatp3136
Rp3137
ag312
((lp3138
(lp3139
g1225
aF0.9926179780543045
aa(lp3140
g1227
aI16
aa(lp3141
g1233
aF0.12088995980580641
aa(lp3142
g2438
aI9
aa(lp3143
g1231
aI13
aatp3144
Rp3145
ag312
((lp3146
(lp3147
g1225
aF0.9926179780543045
aa(lp3148
g1227
aI7
aa(lp3149
g1233
aF0.12088995980580641
aa(lp3150
g2438
aI18
aa(lp3151
g1231
aI31
aatp3152
Rp3153
ag312
((lp3154
(lp3155
g1225
aF0.837407452880671
aa(lp3156
g1227
aI18
aa(lp3157
g1233
aF0.762280082457942
aa(lp3158
g2438
aI14
aa(lp3159
g1231
aI25
aatp3160
Rp3161
ag312
((lp3162
(lp3163
g1225
aF0.7140798519983268
aa(lp3164
g1227
aI19
aa(lp3165
g1233
aF0.4221069999614152
aa(lp3166
g2438
aI17
aa(lp3167
g1231
aI34
aatp3168
Rp3169
ag312
((lp3170
(lp3171
g1225
aF0.9926179780543045
aa(lp3172
g1227
aI7
aa(lp3173
g1233
aF0.12088995980580641
aa(lp3174
g2438
aI18
aa(lp3175
g1231
aI31
aatp3176
Rp3177
ag312
((lp3178
(lp3179
g1225
aF0.837407452880671
aa(lp3180
g1227
aI8
aa(lp3181
g1233
aF0.762280082457942
aa(lp3182
g2438
aI10
aa(lp3183
g1231
aI2
aatp3184
Rp3185
ag312
((lp3186
(lp3187
g1225
aF0.7140798519983268
aa(lp3188
g1227
aI18
aa(lp3189
g1233
aF0.4221069999614152
aa(lp3190
g2438
aI5
aa(lp3191
g1231
aI26
aatp3192
Rp3193
ag312
((lp3194
(lp3195
g1225
aF0.7140798519983268
aa(lp3196
g1227
aI16
aa(lp3197
g1233
aF0.4221069999614152
aa(lp3198
g2438
aI7
aa(lp3199
g1231
aI11
aatp3200
Rp3201
ag312
((lp3202
(lp3203
g1225
aF0.42789540982689017
aa(lp3204
g1227
aI18
aa(lp3205
g1233
aF0.22169166627303505
aa(lp3206
g2438
aI12
aa(lp3207
g1231
aI10
aatp3208
Rp3209
ag312
((lp3210
(lp3211
g1225
aF0.7140798519983268
aa(lp3212
g1227
aI18
aa(lp3213
g1233
aF0.4221069999614152
aa(lp3214
g2438
aI5
aa(lp3215
g1231
aI26
aatp3216
Rp3217
ag312
((lp3218
(lp3219
g1225
aF0.9926179780543045
aa(lp3220
g1227
aI16
aa(lp3221
g1233
aF0.12088995980580641
aa(lp3222
g2438
aI9
aa(lp3223
g1231
aI13
aatp3224
Rp3225
ag312
((lp3226
(lp3227
g1225
aF0.9926179780543045
aa(lp3228
g1227
aI12
aa(lp3229
g1233
aF0.12088995980580641
aa(lp3230
g2438
aI5
aa(lp3231
g1231
aI5
aatp3232
Rp3233
aaF13.075195074081421
as.