(dp0
S'run_dectreeclas'
p1
(lp2
(lp3
cnumpy.core.multiarray
scalar
p4
(cnumpy
dtype
p5
(S'f8'
p6
I0
I1
tp7
Rp8
(I3
S'<'
p9
NNNI-1
I-1
I0
tp10
bS'\x11~\xc9\x90\xf7\x0e\x04@'
p11
tp12
Rp13
ag4
(g8
S'Y\xe8%u\xbe\x05\x07@'
p14
tp15
Rp16
ag4
(g8
S'2\xf7f\x13&\xe4\x00@'
p17
tp18
Rp19
ag4
(g8
S'\xbb\x16X0\x1a\xfe\x01@'
p20
tp21
Rp22
ag4
(g8
S'\xfch\xb3\n?;\xff?'
p23
tp24
Rp25
ag4
(g8
S'\xa3\x1d"\xf9/[\x04@'
p26
tp27
Rp28
ag4
(g8
S'\xe8\xa5\xde\x1d\x1e\n\xfe?'
p29
tp30
Rp31
ag4
(g8
S"l\xadc'fP\x00@"
p32
tp33
Rp34
ag4
(g8
S"'\xc1?\xbb\xf7c\x00@"
p35
tp36
Rp37
ag4
(g8
S'W\x98\xaaCqw\x06@'
p38
tp39
Rp40
aa(lp41
ccollections
OrderedDict
p42
((lp43
(lp44
S'max_features'
p45
aF0.9926179780543045
aa(lp46
S'min_samples_split'
p47
aI12
aa(lp48
S'min_impurity_split'
p49
aF0.12088995980580641
aa(lp50
S'max_depth'
p51
aI5
aa(lp52
S'min_samples_leaf'
p53
aI5
aatp54
Rp55
ag42
((lp56
(lp57
g45
aF0.42789540982689017
aa(lp58
g47
aI13
aa(lp59
g49
aF0.22169166627303505
aa(lp60
g51
aI18
aa(lp61
g53
aI40
aatp62
Rp63
ag42
((lp64
(lp65
g45
aF0.7140798519983268
aa(lp66
g47
aI18
aa(lp67
g49
aF0.4221069999614152
aa(lp68
g51
aI5
aa(lp69
g53
aI26
aatp70
Rp71
ag42
((lp72
(lp73
g45
aF0.7140798519983268
aa(lp74
g47
aI18
aa(lp75
g49
aF0.4221069999614152
aa(lp76
g51
aI5
aa(lp77
g53
aI26
aatp78
Rp79
ag42
((lp80
(lp81
g45
aF0.9926179780543045
aa(lp82
g47
aI18
aa(lp83
g49
aF0.12088995980580641
aa(lp84
g51
aI14
aa(lp85
g53
aI25
aatp86
Rp87
ag42
((lp88
(lp89
g45
aF0.7140798519983268
aa(lp90
g47
aI18
aa(lp91
g49
aF0.4221069999614152
aa(lp92
g51
aI5
aa(lp93
g53
aI26
aatp94
Rp95
ag42
((lp96
(lp97
g45
aF0.9926179780543045
aa(lp98
g47
aI18
aa(lp99
g49
aF0.12088995980580641
aa(lp100
g51
aI14
aa(lp101
g53
aI25
aatp102
Rp103
ag42
((lp104
(lp105
g45
aF0.7140798519983268
aa(lp106
g47
aI18
aa(lp107
g49
aF0.4221069999614152
aa(lp108
g51
aI5
aa(lp109
g53
aI26
aatp110
Rp111
ag42
((lp112
(lp113
g45
aF0.9926179780543045
aa(lp114
g47
aI16
aa(lp115
g49
aF0.12088995980580641
aa(lp116
g51
aI9
aa(lp117
g53
aI13
aatp118
Rp119
ag42
((lp120
(lp121
g45
aF0.9926179780543045
aa(lp122
g47
aI7
aa(lp123
g49
aF0.12088995980580641
aa(lp124
g51
aI18
aa(lp125
g53
aI31
aatp126
Rp127
aaF1.4082400798797607
asS'run_rfclas'
p128
(lp129
(lp130
g4
(g8
S'\xb8\xb5a\x9fo\xc4\xfd?'
p131
tp132
Rp133
ag4
(g8
S'\x87\x8b\x81kf8\x01@'
p134
tp135
Rp136
ag4
(g8
S'\xa5\x8f[\xfeze\x01@'
p137
tp138
Rp139
ag4
(g8
S'\x8d>\x12_\x9a\xbe\x06@'
p140
tp141
Rp142
ag4
(g8
S'\xdcOi\x01^\xac\xfb?'
p143
tp144
Rp145
ag4
(g8
S'\x17\xf5we\x8d\xdd\xfb?'
p146
tp147
Rp148
ag4
(g8
S'\x8a\xf5wG\xf4\xdd\x08@'
p149
tp150
Rp151
ag4
(g8
S"\xfe\x8b-'\x97u\x02@"
p152
tp153
Rp154
ag4
(g8
S'5\xdf\x1f\x05\x9eH\xfc?'
p155
tp156
Rp157
ag4
(g8
S'\xb2\xa1\xab\x7fL\xc6\t@'
p158
tp159
Rp160
aa(lp161
g42
((lp162
(lp163
g45
aF0.6550770429955354
aa(lp164
g47
aI16
aa(lp165
S'max_leaf_nodes'
p166
aI28
aa(lp167
g53
aI18
aa(lp168
g49
aF0.8357651039198697
aa(lp169
S'n_estimators'
p170
aI61
aatp171
Rp172
ag42
((lp173
(lp174
g45
aF0.8317353363415838
aa(lp175
g47
aI14
aa(lp176
g166
aI16
aa(lp177
g53
aI12
aa(lp178
g49
aF0.8824790008318577
aa(lp179
g170
aI93
aatp180
Rp181
ag42
((lp182
(lp183
g45
aF0.8317353363415838
aa(lp184
g47
aI18
aa(lp185
g166
aI8
aa(lp186
g53
aI12
aa(lp187
g49
aF0.8824790008318577
aa(lp188
g170
aI55
aatp189
Rp190
ag42
((lp191
(lp192
g45
aF0.7646572816333626
aa(lp193
g47
aI7
aa(lp194
g166
aI45
aa(lp195
g53
aI12
aa(lp196
g49
aF0.22876222127045265
aa(lp197
g170
aI97
aatp198
Rp199
ag42
((lp200
(lp201
g45
aF0.8392021959059471
aa(lp202
g47
aI12
aa(lp203
g166
aI17
aa(lp204
g53
aI5
aa(lp205
g49
aF0.9925434121760651
aa(lp206
g170
aI54
aatp207
Rp208
ag42
((lp209
(lp210
g45
aF0.8317353363415838
aa(lp211
g47
aI18
aa(lp212
g166
aI8
aa(lp213
g53
aI12
aa(lp214
g49
aF0.8824790008318577
aa(lp215
g170
aI55
aatp216
Rp217
ag42
((lp218
(lp219
g45
aF0.8392021959059471
aa(lp220
g47
aI4
aa(lp221
g166
aI46
aa(lp222
g53
aI1
aa(lp223
g49
aF0.9925434121760651
aa(lp224
g170
aI66
aatp225
Rp226
ag42
((lp227
(lp228
g45
aF0.8392021959059471
aa(lp229
g47
aI20
aa(lp230
g166
aI16
aa(lp231
g53
aI12
aa(lp232
g49
aF0.9925434121760651
aa(lp233
g170
aI72
aatp234
Rp235
ag42
((lp236
(lp237
g45
aF0.8317353363415838
aa(lp238
g47
aI7
aa(lp239
g166
aI18
aa(lp240
g53
aI11
aa(lp241
g49
aF0.8824790008318577
aa(lp242
g170
aI79
aatp243
Rp244
ag42
((lp245
(lp246
g45
aF0.8392021959059471
aa(lp247
g47
aI12
aa(lp248
g166
aI17
aa(lp249
g53
aI5
aa(lp250
g49
aF0.9925434121760651
aa(lp251
g170
aI54
aatp252
Rp253
aaF182.98061299324036
asS'run_svmclas'
p254
(lp255
(lp256
g4
(g8
S'\x17\x1b\xe0\xec\xa6\x9e\x08@'
p257
tp258
Rp259
ag4
(g8
S'Q\xb4F\x8bBv\x04@'
p260
tp261
Rp262
ag4
(g8
S'\xe1\x80n\x0b`\x98\x05@'
p263
tp264
Rp265
ag4
(g8
S'|\xae\x9e\x95\xd3u\x03@'
p266
tp267
Rp268
ag4
(g8
S'\xbb\x17\xff\xdc`\x98\x04@'
p269
tp270
Rp271
ag4
(g8
S"\x95\xd5\x9b\x03'\x03\x00@"
p272
tp273
Rp274
ag4
(g8
S'\x84\x95\x11\xcb\xd9\xdd\x10@'
p275
tp276
Rp277
ag4
(g8
S'\xa4b\x9fCi\xbf\x06@'
p278
tp279
Rp280
ag4
(g8
S'\xfa0\xd3\x99\x89K\x10@'
p281
tp282
Rp283
ag4
(g8
S'\x86\xbcT\x7f\xd0b\x03@'
p284
tp285
Rp286
aa(lp287
g42
((lp288
(lp289
S'C'
p290
aF65.19413797500401
aa(lp291
S'kernel'
p292
aS'linear'
p293
aa(lp294
S'degree'
p295
aI1
aatp296
Rp297
ag42
((lp298
(lp299
g290
aF2.9319129045484305
aa(lp300
g292
ag293
aa(lp301
g295
aI15
aatp302
Rp303
ag42
((lp304
(lp305
g290
aF72.18184923084418
aa(lp306
g292
ag293
aa(lp307
g295
aI6
aatp308
Rp309
ag42
((lp310
(lp311
g290
aF72.18184923084418
aa(lp312
g292
ag293
aa(lp313
g295
aI6
aatp314
Rp315
ag42
((lp316
(lp317
g290
aF21.738279773348278
aa(lp318
g292
aS'rbf'
p319
aa(lp320
g295
aI9
aatp321
Rp322
ag42
((lp323
(lp324
g290
aF21.738279773348278
aa(lp325
g292
aS'poly'
p326
aa(lp327
g295
aI1
aatp328
Rp329
ag42
((lp330
(lp331
g290
aF65.19413797500401
aa(lp332
g292
ag326
aa(lp333
g295
aI1
aatp334
Rp335
ag42
((lp336
(lp337
g290
aF65.19413797500401
aa(lp338
g292
ag293
aa(lp339
g295
aI1
aatp340
Rp341
ag42
((lp342
(lp343
g290
aF76.2517802375484
aa(lp344
g292
ag293
aa(lp345
g295
aI9
aatp346
Rp347
ag42
((lp348
(lp349
g290
aF65.19413797500401
aa(lp350
g292
ag293
aa(lp351
g295
aI1
aatp352
Rp353
aaF1578.1503500938416
as.