(dp0
S'run_dectreeclas'
p1
(lp2
(lp3
cnumpy.core.multiarray
scalar
p4
(cnumpy
dtype
p5
(S'f8'
p6
I0
I1
tp7
Rp8
(I3
S'<'
p9
NNNI-1
I-1
I0
tp10
bS'\xf6(\\\x8f\xc2\xf5\xe8?'
p11
tp12
Rp13
ag4
(g8
S'\x88\xc6\xfa\xd0X\x1f\xea?'
p14
tp15
Rp16
ag4
(g8
S'UUUUUU\xe9?'
p17
tp18
Rp19
ag4
(g8
S'\x00\x00\x00\x00\x00\x00\xe8?'
p20
tp21
Rp22
ag4
(g8
S'\xab\xaa\xaa\xaa\xaa\xaa\xe6?'
p23
tp24
Rp25
ag4
(g8
S'\xab\xaa\xaa\xaa\xaa\xaa\xe6?'
p26
tp27
Rp28
ag4
(g8
S'\x00\x00\x00\x00\x00\x00\xea?'
p29
tp30
Rp31
ag4
(g8
S'x6\xea;\x1b\xf5\xed?'
p32
tp33
Rp34
ag4
(g8
S'\xf5\x9d\x8d\xfa\xceF\xed?'
p35
tp36
Rp37
ag4
(g8
S'g\xa3\xbe\xb3Q\xdf\xe9?'
p38
tp39
Rp40
aa(lp41
ccollections
OrderedDict
p42
((lp43
(lp44
S'max_features'
p45
aF0.9926179780543045
aa(lp46
S'min_samples_split'
p47
aI18
aa(lp48
S'min_impurity_split'
p49
aF0.12088995980580641
aa(lp50
S'max_depth'
p51
aI7
aa(lp52
S'min_samples_leaf'
p53
aI37
aatp54
Rp55
ag42
((lp56
(lp57
g45
aF0.42789540982689017
aa(lp58
g47
aI2
aa(lp59
g49
aF0.22169166627303505
aa(lp60
g51
aI9
aa(lp61
g53
aI25
aatp62
Rp63
ag42
((lp64
(lp65
g45
aF0.42789540982689017
aa(lp66
g47
aI7
aa(lp67
g49
aF0.22169166627303505
aa(lp68
g51
aI12
aa(lp69
g53
aI23
aatp70
Rp71
ag42
((lp72
(lp73
g45
aF0.42789540982689017
aa(lp74
g47
aI2
aa(lp75
g49
aF0.22169166627303505
aa(lp76
g51
aI9
aa(lp77
g53
aI25
aatp78
Rp79
ag42
((lp80
(lp81
g45
aF0.9926179780543045
aa(lp82
g47
aI4
aa(lp83
g49
aF0.12088995980580641
aa(lp84
g51
aI15
aa(lp85
g53
aI9
aatp86
Rp87
ag42
((lp88
(lp89
g45
aF0.2407536057549969
aa(lp90
g47
aI12
aa(lp91
g49
aF0.2187810373376886
aa(lp92
g51
aI5
aa(lp93
g53
aI5
aatp94
Rp95
ag42
((lp96
(lp97
g45
aF0.7140798519983268
aa(lp98
g47
aI18
aa(lp99
g49
aF0.4221069999614152
aa(lp100
g51
aI5
aa(lp101
g53
aI26
aatp102
Rp103
ag42
((lp104
(lp105
g45
aF0.42789540982689017
aa(lp106
g47
aI13
aa(lp107
g49
aF0.22169166627303505
aa(lp108
g51
aI2
aa(lp109
g53
aI15
aatp110
Rp111
ag42
((lp112
(lp113
g45
aF0.42789540982689017
aa(lp114
g47
aI18
aa(lp115
g49
aF0.22169166627303505
aa(lp116
g51
aI12
aa(lp117
g53
aI10
aatp118
Rp119
ag42
((lp120
(lp121
g45
aF0.9926179780543045
aa(lp122
g47
aI7
aa(lp123
g49
aF0.12088995980580641
aa(lp124
g51
aI18
aa(lp125
g53
aI31
aatp126
Rp127
aaF1.0888500213623047
asS'run_rfclas'
p128
(lp129
(lp130
g4
(g8
S'\xf6(\\\x8f\xc2\xf5\xe8?'
p131
tp132
Rp133
ag4
(g8
S'\n^N\xc1\xcb)\xe8?'
p134
tp135
Rp136
ag4
(g8
S'\xaa\xaa\xaa\xaa\xaa\xaa\xe8?'
p137
tp138
Rp139
ag4
(g8
S'\x00\x00\x00\x00\x00\x00\xea?'
p140
tp141
Rp142
ag4
(g8
S'\xab\xaa\xaa\xaa\xaa\xaa\xe6?'
p143
tp144
Rp145
ag4
(g8
S'\xaa\xaa\xaa\xaa\xaa\xaa\xe8?'
p146
tp147
Rp148
ag4
(g8
S'UUUUUU\xe5?'
p149
tp150
Rp151
ag4
(g8
S'\xea;\x1b\xf5\x9d\x8d\xea?'
p152
tp153
Rp154
ag4
(g8
S'\xf5\x9d\x8d\xfa\xceF\xed?'
p155
tp156
Rp157
ag4
(g8
S'\xdf\xd9\xa8\xefl\xd4\xe7?'
p158
tp159
Rp160
aa(lp161
g42
((lp162
(lp163
g45
aF0.7646572816333626
aa(lp164
g47
aI2
aa(lp165
S'max_leaf_nodes'
p166
aI23
aa(lp167
g53
aI15
aa(lp168
g49
aF0.22876222127045265
aa(lp169
S'n_estimators'
p170
aI98
aatp171
Rp172
ag42
((lp173
(lp174
g45
aF0.2407536057549969
aa(lp175
g47
aI6
aa(lp176
g166
aI12
aa(lp177
g53
aI10
aa(lp178
g49
aF0.28978161459048557
aa(lp179
g170
aI51
aatp180
Rp181
ag42
((lp182
(lp183
g45
aF0.2407536057549969
aa(lp184
g47
aI6
aa(lp185
g166
aI35
aa(lp186
g53
aI17
aa(lp187
g49
aF0.28978161459048557
aa(lp188
g170
aI97
aatp189
Rp190
ag42
((lp191
(lp192
g45
aF0.22443340315930727
aa(lp193
g47
aI9
aa(lp194
g166
aI11
aa(lp195
g53
aI3
aa(lp196
g49
aF0.43788759365057206
aa(lp197
g170
aI95
aatp198
Rp199
ag42
((lp200
(lp201
g45
aF0.14302060167127723
aa(lp202
g47
aI16
aa(lp203
g166
aI14
aa(lp204
g53
aI3
aa(lp205
g49
aF0.49543508709194095
aa(lp206
g170
aI81
aatp207
Rp208
ag42
((lp209
(lp210
g45
aF0.2407536057549969
aa(lp211
g47
aI17
aa(lp212
g166
aI18
aa(lp213
g53
aI13
aa(lp214
g49
aF0.28978161459048557
aa(lp215
g170
aI89
aatp216
Rp217
ag42
((lp218
(lp219
g45
aF0.2407536057549969
aa(lp220
g47
aI13
aa(lp221
g166
aI43
aa(lp222
g53
aI8
aa(lp223
g49
aF0.28978161459048557
aa(lp224
g170
aI67
aatp225
Rp226
ag42
((lp227
(lp228
g45
aF0.2407536057549969
aa(lp229
g47
aI20
aa(lp230
g166
aI7
aa(lp231
g53
aI5
aa(lp232
g49
aF0.28978161459048557
aa(lp233
g170
aI81
aatp234
Rp235
ag42
((lp236
(lp237
g45
aF0.2407536057549969
aa(lp238
g47
aI4
aa(lp239
g166
aI46
aa(lp240
g53
aI1
aa(lp241
g49
aF0.28978161459048557
aa(lp242
g170
aI66
aatp243
Rp244
ag42
((lp245
(lp246
g45
aF0.7646572816333626
aa(lp247
g47
aI2
aa(lp248
g166
aI23
aa(lp249
g53
aI15
aa(lp250
g49
aF0.22876222127045265
aa(lp251
g170
aI98
aatp252
Rp253
aaF157.98875093460083
asS'run_svmclas'
p254
(lp255
(lp256
g4
(g8
S'R\xb8\x1e\x85\xebQ\xe8?'
p257
tp258
Rp259
ag4
(g8
S'\n^N\xc1\xcb)\xe8?'
p260
tp261
Rp262
ag4
(g8
S'TUUUUU\xe7?'
p263
tp264
Rp265
ag4
(g8
S'\xaa\xaa\xaa\xaa\xaa\xaa\xe8?'
p266
tp267
Rp268
ag4
(g8
S'UUUUUU\xe5?'
p269
tp270
Rp271
ag4
(g8
S'\xaa\xaa\xaa\xaa\xaa\xaa\xe8?'
p272
tp273
Rp274
ag4
(g8
S'\x00\x00\x00\x00\x00\x00\xe6?'
p275
tp276
Rp277
ag4
(g8
S'\xdf\xd9\xa8\xefl\xd4\xe7?'
p278
tp279
Rp280
ag4
(g8
S'ar\x051\xb9\x82\xe8?'
p281
tp282
Rp283
ag4
(g8
S'\xdf\xd9\xa8\xefl\xd4\xe7?'
p284
tp285
Rp286
aa(lp287
g42
((lp288
(lp289
S'C'
p290
aF72.18184923084418
aa(lp291
S'kernel'
p292
aS'rbf'
p293
aa(lp294
S'degree'
p295
aI2
aatp296
Rp297
ag42
((lp298
(lp299
g290
aF13.522987986828882
aa(lp300
g292
aS'sigmoid'
p301
aa(lp302
g295
aI7
aatp303
Rp304
ag42
((lp305
(lp306
g290
aF2.9319129045484305
aa(lp307
g292
ag301
aa(lp308
g295
aI7
aatp309
Rp310
ag42
((lp311
(lp312
g290
aF90.15260301538721
aa(lp313
g292
aS'linear'
p314
aa(lp315
g295
aI4
aatp316
Rp317
ag42
((lp318
(lp319
g290
aF72.18184923084418
aa(lp320
g292
ag301
aa(lp321
g295
aI12
aatp322
Rp323
ag42
((lp324
(lp325
g290
aF90.15260301538721
aa(lp326
g292
ag314
aa(lp327
g295
aI4
aatp328
Rp329
ag42
((lp330
(lp331
g290
aF13.522987986828882
aa(lp332
g292
ag314
aa(lp333
g295
aI6
aatp334
Rp335
ag42
((lp336
(lp337
g290
aF65.19413797500401
aa(lp338
g292
ag301
aa(lp339
g295
aI7
aatp340
Rp341
ag42
((lp342
(lp343
g290
aF2.9319129045484305
aa(lp344
g292
ag293
aa(lp345
g295
aI11
aatp346
Rp347
ag42
((lp348
(lp349
g290
aF54.18710603207031
aa(lp350
g292
ag293
aa(lp351
g295
aI2
aatp352
Rp353
aaF41.09343504905701
as.