(dp0
S'run_dectreeclas'
p1
(lp2
(lp3
cnumpy.core.multiarray
scalar
p4
(cnumpy
dtype
p5
(S'f8'
p6
I0
I1
tp7
Rp8
(I3
S'<'
p9
NNNI-1
I-1
I0
tp10
bS'\xa9]\x89\xda\x95\xa8\xed?'
p11
tp12
Rp13
ag4
(g8
S'p>\x06\xe7cp\xee?'
p14
tp15
Rp16
ag4
(g8
S'E\xedJ\xd4\xaeD\xed?'
p17
tp18
Rp19
ag4
(g8
S'p>\x06\xe7cp\xee?'
p20
tp21
Rp22
ag4
(g8
S'\xa9]\x89\xda\x95\xa8\xed?'
p23
tp24
Rp25
ag4
(g8
S'\x19\x9c\x8f\xc1\xf9\x18\xec?'
p26
tp27
Rp28
ag4
(g8
S'k~X\xa4\x0c<\xed?'
p29
tp30
Rp31
ag4
(g8
S'\x13\xdaKh/\xa1\xed?'
p32
tp33
Rp34
ag4
(g8
S'\xcd\xcc\xcc\xcc\xcc\xcc\xec?'
p35
tp36
Rp37
ag4
(g8
S'333333\xed?'
p38
tp39
Rp40
ag4
(g8
S'\xe1|\x0c\xce\xc7\xe0\xec?'
p41
tp42
Rp43
ag4
(g8
S'\xa9]\x89\xda\x95\xa8\xed?'
p44
tp45
Rp46
ag4
(g8
S'\xe1|\x0c\xce\xc7\xe0\xec?'
p47
tp48
Rp49
ag4
(g8
S'\xe1|\x0c\xce\xc7\xe0\xec?'
p50
tp51
Rp52
ag4
(g8
S'\xe1|\x0c\xce\xc7\xe0\xec?'
p53
tp54
Rp55
ag4
(g8
S'\xa9]\x89\xda\x95\xa8\xed?'
p56
tp57
Rp58
ag4
(g8
S'\xba5?,R\x06\xee?'
p59
tp60
Rp61
ag4
(g8
S'b\x912\xf0tk\xee?'
p62
tp63
Rp64
ag4
(g8
S'333333\xed?'
p65
tp66
Rp67
ag4
(g8
S'ffffff\xec?'
p68
tp69
Rp70
ag4
(g8
S'\x0c\xce\xc7\xe0|\x0c\xee?'
p71
tp72
Rp73
ag4
(g8
S'}\x0c\xce\xc7\xe0|\xec?'
p74
tp75
Rp76
ag4
(g8
S'E\xedJ\xd4\xaeD\xed?'
p77
tp78
Rp79
ag4
(g8
S'E\xedJ\xd4\xaeD\xed?'
p80
tp81
Rp82
ag4
(g8
S'E\xedJ\xd4\xaeD\xed?'
p83
tp84
Rp85
ag4
(g8
S'\xa9]\x89\xda\x95\xa8\xed?'
p86
tp87
Rp88
ag4
(g8
S'b\x912\xf0tk\xee?'
p89
tp90
Rp91
ag4
(g8
S'\xcd\x0f\x8b\x94\x81\xa7\xeb?'
p92
tp93
Rp94
ag4
(g8
S'\x00\x00\x00\x00\x00\x00\xee?'
p95
tp96
Rp97
ag4
(g8
S'\xce\xcc\xcc\xcc\xcc\xcc\xee?'
p98
tp99
Rp100
ag4
(g8
S'\x0c\xce\xc7\xe0|\x0c\xee?'
p101
tp102
Rp103
ag4
(g8
S'\x19\x9c\x8f\xc1\xf9\x18\xec?'
p104
tp105
Rp106
ag4
(g8
S'p>\x06\xe7cp\xee?'
p107
tp108
Rp109
ag4
(g8
S'\xa9]\x89\xda\x95\xa8\xed?'
p110
tp111
Rp112
ag4
(g8
S'\x0c\xce\xc7\xe0|\x0c\xee?'
p113
tp114
Rp115
ag4
(g8
S'}\x0c\xce\xc7\xe0|\xec?'
p116
tp117
Rp118
ag4
(g8
S'\xba5?,R\x06\xee?'
p119
tp120
Rp121
ag4
(g8
S'k~X\xa4\x0c<\xed?'
p122
tp123
Rp124
ag4
(g8
S'\x9a\x99\x99\x99\x99\x99\xed?'
p125
tp126
Rp127
ag4
(g8
S'\x9a\x99\x99\x99\x99\x99\xed?'
p128
tp129
Rp130
ag4
(g8
S'}\x0c\xce\xc7\xe0|\xec?'
p131
tp132
Rp133
ag4
(g8
S'}\x0c\xce\xc7\xe0|\xec?'
p134
tp135
Rp136
ag4
(g8
S'\xe1|\x0c\xce\xc7\xe0\xec?'
p137
tp138
Rp139
ag4
(g8
S'\xe1|\x0c\xce\xc7\xe0\xec?'
p140
tp141
Rp142
ag4
(g8
S'}\x0c\xce\xc7\xe0|\xec?'
p143
tp144
Rp145
ag4
(g8
S'E\xedJ\xd4\xaeD\xed?'
p146
tp147
Rp148
ag4
(g8
S'\xb1H\x19x\xba5\xef?'
p149
tp150
Rp151
ag4
(g8
S'k~X\xa4\x0c<\xed?'
p152
tp153
Rp154
ag4
(g8
S'\x9a\x99\x99\x99\x99\x99\xed?'
p155
tp156
Rp157
ag4
(g8
S'gfffff\xee?'
p158
tp159
Rp160
ag4
(g8
S'E\xedJ\xd4\xaeD\xed?'
p161
tp162
Rp163
ag4
(g8
S'\xa9]\x89\xda\x95\xa8\xed?'
p164
tp165
Rp166
ag4
(g8
S'\xd4\xaeD\xedJ\xd4\xee?'
p167
tp168
Rp169
ag4
(g8
S'E\xedJ\xd4\xaeD\xed?'
p170
tp171
Rp172
ag4
(g8
S'\x0c\xce\xc7\xe0|\x0c\xee?'
p173
tp174
Rp175
ag4
(g8
S'\x19\x9c\x8f\xc1\xf9\x18\xec?'
p176
tp177
Rp178
ag4
(g8
S'uk~X\xa4\x0c\xec?'
p179
tp180
Rp181
ag4
(g8
S'\x13\xdaKh/\xa1\xed?'
p182
tp183
Rp184
ag4
(g8
S'333333\xef?'
p185
tp186
Rp187
ag4
(g8
S'ffffff\xec?'
p188
tp189
Rp190
ag4
(g8
S'\x0c\xce\xc7\xe0|\x0c\xee?'
p191
tp192
Rp193
ag4
(g8
S'E\xedJ\xd4\xaeD\xed?'
p194
tp195
Rp196
ag4
(g8
S'\xe1|\x0c\xce\xc7\xe0\xec?'
p197
tp198
Rp199
ag4
(g8
S'\xa9]\x89\xda\x95\xa8\xed?'
p200
tp201
Rp202
ag4
(g8
S'p>\x06\xe7cp\xee?'
p203
tp204
Rp205
ag4
(g8
S'\xb5+Q\xbb\x12\xb5\xeb?'
p206
tp207
Rp208
ag4
(g8
S'b\x912\xf0tk\xee?'
p209
tp210
Rp211
ag4
(g8
S'k~X\xa4\x0c<\xed?'
p212
tp213
Rp214
ag4
(g8
S'gfffff\xee?'
p215
tp216
Rp217
ag4
(g8
S'\xce\xcc\xcc\xcc\xcc\xcc\xee?'
p218
tp219
Rp220
ag4
(g8
S'\xa9]\x89\xda\x95\xa8\xed?'
p221
tp222
Rp223
ag4
(g8
S'\xa9]\x89\xda\x95\xa8\xed?'
p224
tp225
Rp226
ag4
(g8
S'\xe1|\x0c\xce\xc7\xe0\xec?'
p227
tp228
Rp229
ag4
(g8
S'E\xedJ\xd4\xaeD\xed?'
p230
tp231
Rp232
ag4
(g8
S'\xe1|\x0c\xce\xc7\xe0\xec?'
p233
tp234
Rp235
ag4
(g8
S'\x19\x9c\x8f\xc1\xf9\x18\xec?'
p236
tp237
Rp238
ag4
(g8
S'\xc4"e\xe0\xe9\xd6\xec?'
p239
tp240
Rp241
ag4
(g8
S'\x13\xdaKh/\xa1\xed?'
p242
tp243
Rp244
ag4
(g8
S'ffffff\xec?'
p245
tp246
Rp247
ag4
(g8
S'gfffff\xee?'
p248
tp249
Rp250
ag4
(g8
S'E\xedJ\xd4\xaeD\xed?'
p251
tp252
Rp253
ag4
(g8
S'\xe1|\x0c\xce\xc7\xe0\xec?'
p254
tp255
Rp256
ag4
(g8
S'E\xedJ\xd4\xaeD\xed?'
p257
tp258
Rp259
ag4
(g8
S'}\x0c\xce\xc7\xe0|\xec?'
p260
tp261
Rp262
ag4
(g8
S'\x9c\x8f\xc1\xf9\x18\x9c\xef?'
p263
tp264
Rp265
ag4
(g8
S'}\x0c\xce\xc7\xe0|\xec?'
p266
tp267
Rp268
ag4
(g8
S'\x13\xdaKh/\xa1\xed?'
p269
tp270
Rp271
ag4
(g8
S'\x1c\xc7q\x1c\xc7q\xec?'
p272
tp273
Rp274
ag4
(g8
S'ffffff\xec?'
p275
tp276
Rp277
ag4
(g8
S'\x9a\x99\x99\x99\x99\x99\xed?'
p278
tp279
Rp280
ag4
(g8
S'E\xedJ\xd4\xaeD\xed?'
p281
tp282
Rp283
ag4
(g8
S'\xa9]\x89\xda\x95\xa8\xed?'
p284
tp285
Rp286
ag4
(g8
S'\xe1|\x0c\xce\xc7\xe0\xec?'
p287
tp288
Rp289
ag4
(g8
S'E\xedJ\xd4\xaeD\xed?'
p290
tp291
Rp292
ag4
(g8
S'\xa9]\x89\xda\x95\xa8\xed?'
p293
tp294
Rp295
ag4
(g8
S'}\x0c\xce\xc7\xe0|\xec?'
p296
tp297
Rp298
ag4
(g8
S'b\x912\xf0tk\xee?'
p299
tp300
Rp301
ag4
(g8
S'\x1c\xc7q\x1c\xc7q\xec?'
p302
tp303
Rp304
ag4
(g8
S'333333\xed?'
p305
tp306
Rp307
ag4
(g8
S'\xcd\xcc\xcc\xcc\xcc\xcc\xec?'
p308
tp309
Rp310
aa(lp311
ccollections
OrderedDict
p312
((lp313
(lp314
S'max_features'
p315
aF0.42789540982689017
aa(lp316
S'min_samples_split'
p317
aI14
aa(lp318
S'min_impurity_split'
p319
aF0.22169166627303505
aa(lp320
S'max_depth'
p321
aI9
aa(lp322
S'min_samples_leaf'
p323
aI10
aatp324
Rp325
ag312
((lp326
(lp327
g315
aF0.9926179780543045
aa(lp328
g317
aI16
aa(lp329
g319
aF0.12088995980580641
aa(lp330
g321
aI9
aa(lp331
g323
aI13
aatp332
Rp333
ag312
((lp334
(lp335
g315
aF0.9926179780543045
aa(lp336
g317
aI12
aa(lp337
g319
aF0.12088995980580641
aa(lp338
g321
aI5
aa(lp339
g323
aI5
aatp340
Rp341
ag312
((lp342
(lp343
g315
aF0.2407536057549969
aa(lp344
g317
aI6
aa(lp345
g319
aF0.2187810373376886
aa(lp346
g321
aI10
aa(lp347
g323
aI15
aatp348
Rp349
ag312
((lp350
(lp351
g315
aF0.9926179780543045
aa(lp352
g317
aI19
aa(lp353
g319
aF0.12088995980580641
aa(lp354
g321
aI5
aa(lp355
g323
aI38
aatp356
Rp357
ag312
((lp358
(lp359
g315
aF0.42789540982689017
aa(lp360
g317
aI11
aa(lp361
g319
aF0.22169166627303505
aa(lp362
g321
aI12
aa(lp363
g323
aI2
aatp364
Rp365
ag312
((lp366
(lp367
g315
aF0.9926179780543045
aa(lp368
g317
aI20
aa(lp369
g319
aF0.12088995980580641
aa(lp370
g321
aI12
aa(lp371
g323
aI9
aatp372
Rp373
ag312
((lp374
(lp375
g315
aF0.9926179780543045
aa(lp376
g317
aI20
aa(lp377
g319
aF0.12088995980580641
aa(lp378
g321
aI12
aa(lp379
g323
aI9
aatp380
Rp381
ag312
((lp382
(lp383
g315
aF0.9926179780543045
aa(lp384
g317
aI12
aa(lp385
g319
aF0.12088995980580641
aa(lp386
g321
aI5
aa(lp387
g323
aI5
aatp388
Rp389
ag312
((lp390
(lp391
g315
aF0.2407536057549969
aa(lp392
g317
aI6
aa(lp393
g319
aF0.2187810373376886
aa(lp394
g321
aI10
aa(lp395
g323
aI15
aatp396
Rp397
ag312
((lp398
(lp399
g315
aF0.9926179780543045
aa(lp400
g317
aI20
aa(lp401
g319
aF0.12088995980580641
aa(lp402
g321
aI12
aa(lp403
g323
aI9
aatp404
Rp405
ag312
((lp406
(lp407
g315
aF0.9926179780543045
aa(lp408
g317
aI20
aa(lp409
g319
aF0.12088995980580641
aa(lp410
g321
aI12
aa(lp411
g323
aI9
aatp412
Rp413
ag312
((lp414
(lp415
g315
aF0.9926179780543045
aa(lp416
g317
aI7
aa(lp417
g319
aF0.12088995980580641
aa(lp418
g321
aI12
aa(lp419
g323
aI23
aatp420
Rp421
ag312
((lp422
(lp423
g315
aF0.2407536057549969
aa(lp424
g317
aI6
aa(lp425
g319
aF0.2187810373376886
aa(lp426
g321
aI10
aa(lp427
g323
aI15
aatp428
Rp429
ag312
((lp430
(lp431
g315
aF0.9926179780543045
aa(lp432
g317
aI20
aa(lp433
g319
aF0.12088995980580641
aa(lp434
g321
aI12
aa(lp435
g323
aI9
aatp436
Rp437
ag312
((lp438
(lp439
g315
aF0.9926179780543045
aa(lp440
g317
aI20
aa(lp441
g319
aF0.12088995980580641
aa(lp442
g321
aI12
aa(lp443
g323
aI9
aatp444
Rp445
ag312
((lp446
(lp447
g315
aF0.42789540982689017
aa(lp448
g317
aI2
aa(lp449
g319
aF0.22169166627303505
aa(lp450
g321
aI9
aa(lp451
g323
aI25
aatp452
Rp453
ag312
((lp454
(lp455
g315
aF0.9926179780543045
aa(lp456
g317
aI16
aa(lp457
g319
aF0.12088995980580641
aa(lp458
g321
aI9
aa(lp459
g323
aI13
aatp460
Rp461
ag312
((lp462
(lp463
g315
aF0.42789540982689017
aa(lp464
g317
aI17
aa(lp465
g319
aF0.22169166627303505
aa(lp466
g321
aI11
aa(lp467
g323
aI12
aatp468
Rp469
ag312
((lp470
(lp471
g315
aF0.9926179780543045
aa(lp472
g317
aI12
aa(lp473
g319
aF0.12088995980580641
aa(lp474
g321
aI5
aa(lp475
g323
aI5
aatp476
Rp477
ag312
((lp478
(lp479
g315
aF0.9926179780543045
aa(lp480
g317
aI20
aa(lp481
g319
aF0.12088995980580641
aa(lp482
g321
aI12
aa(lp483
g323
aI9
aatp484
Rp485
ag312
((lp486
(lp487
g315
aF0.9926179780543045
aa(lp488
g317
aI20
aa(lp489
g319
aF0.12088995980580641
aa(lp490
g321
aI12
aa(lp491
g323
aI9
aatp492
Rp493
ag312
((lp494
(lp495
g315
aF0.9926179780543045
aa(lp496
g317
aI20
aa(lp497
g319
aF0.12088995980580641
aa(lp498
g321
aI12
aa(lp499
g323
aI9
aatp500
Rp501
ag312
((lp502
(lp503
g315
aF0.9926179780543045
aa(lp504
g317
aI20
aa(lp505
g319
aF0.12088995980580641
aa(lp506
g321
aI12
aa(lp507
g323
aI9
aatp508
Rp509
ag312
((lp510
(lp511
g315
aF0.9926179780543045
aa(lp512
g317
aI20
aa(lp513
g319
aF0.12088995980580641
aa(lp514
g321
aI12
aa(lp515
g323
aI9
aatp516
Rp517
ag312
((lp518
(lp519
g315
aF0.9926179780543045
aa(lp520
g317
aI20
aa(lp521
g319
aF0.12088995980580641
aa(lp522
g321
aI12
aa(lp523
g323
aI9
aatp524
Rp525
ag312
((lp526
(lp527
g315
aF0.9926179780543045
aa(lp528
g317
aI12
aa(lp529
g319
aF0.12088995980580641
aa(lp530
g321
aI5
aa(lp531
g323
aI5
aatp532
Rp533
ag312
((lp534
(lp535
g315
aF0.42789540982689017
aa(lp536
g317
aI2
aa(lp537
g319
aF0.22169166627303505
aa(lp538
g321
aI9
aa(lp539
g323
aI25
aatp540
Rp541
ag312
((lp542
(lp543
g315
aF0.42789540982689017
aa(lp544
g317
aI18
aa(lp545
g319
aF0.22169166627303505
aa(lp546
g321
aI12
aa(lp547
g323
aI10
aatp548
Rp549
ag312
((lp550
(lp551
g315
aF0.9926179780543045
aa(lp552
g317
aI4
aa(lp553
g319
aF0.12088995980580641
aa(lp554
g321
aI15
aa(lp555
g323
aI9
aatp556
Rp557
ag312
((lp558
(lp559
g315
aF0.9926179780543045
aa(lp560
g317
aI20
aa(lp561
g319
aF0.12088995980580641
aa(lp562
g321
aI12
aa(lp563
g323
aI9
aatp564
Rp565
ag312
((lp566
(lp567
g315
aF0.9926179780543045
aa(lp568
g317
aI4
aa(lp569
g319
aF0.12088995980580641
aa(lp570
g321
aI15
aa(lp571
g323
aI9
aatp572
Rp573
ag312
((lp574
(lp575
g315
aF0.42789540982689017
aa(lp576
g317
aI18
aa(lp577
g319
aF0.22169166627303505
aa(lp578
g321
aI12
aa(lp579
g323
aI10
aatp580
Rp581
ag312
((lp582
(lp583
g315
aF0.9926179780543045
aa(lp584
g317
aI20
aa(lp585
g319
aF0.12088995980580641
aa(lp586
g321
aI12
aa(lp587
g323
aI9
aatp588
Rp589
ag312
((lp590
(lp591
g315
aF0.42789540982689017
aa(lp592
g317
aI11
aa(lp593
g319
aF0.22169166627303505
aa(lp594
g321
aI12
aa(lp595
g323
aI2
aatp596
Rp597
ag312
((lp598
(lp599
g315
aF0.9926179780543045
aa(lp600
g317
aI12
aa(lp601
g319
aF0.12088995980580641
aa(lp602
g321
aI5
aa(lp603
g323
aI5
aatp604
Rp605
ag312
((lp606
(lp607
g315
aF0.9926179780543045
aa(lp608
g317
aI16
aa(lp609
g319
aF0.12088995980580641
aa(lp610
g321
aI9
aa(lp611
g323
aI13
aatp612
Rp613
ag312
((lp614
(lp615
g315
aF0.9926179780543045
aa(lp616
g317
aI7
aa(lp617
g319
aF0.12088995980580641
aa(lp618
g321
aI18
aa(lp619
g323
aI31
aatp620
Rp621
ag312
((lp622
(lp623
g315
aF0.9926179780543045
aa(lp624
g317
aI20
aa(lp625
g319
aF0.12088995980580641
aa(lp626
g321
aI12
aa(lp627
g323
aI9
aatp628
Rp629
ag312
((lp630
(lp631
g315
aF0.9926179780543045
aa(lp632
g317
aI16
aa(lp633
g319
aF0.12088995980580641
aa(lp634
g321
aI9
aa(lp635
g323
aI13
aatp636
Rp637
ag312
((lp638
(lp639
g315
aF0.9926179780543045
aa(lp640
g317
aI20
aa(lp641
g319
aF0.12088995980580641
aa(lp642
g321
aI12
aa(lp643
g323
aI9
aatp644
Rp645
ag312
((lp646
(lp647
g315
aF0.9926179780543045
aa(lp648
g317
aI7
aa(lp649
g319
aF0.12088995980580641
aa(lp650
g321
aI12
aa(lp651
g323
aI23
aatp652
Rp653
ag312
((lp654
(lp655
g315
aF0.9926179780543045
aa(lp656
g317
aI20
aa(lp657
g319
aF0.12088995980580641
aa(lp658
g321
aI12
aa(lp659
g323
aI9
aatp660
Rp661
ag312
((lp662
(lp663
g315
aF0.42789540982689017
aa(lp664
g317
aI14
aa(lp665
g319
aF0.22169166627303505
aa(lp666
g321
aI9
aa(lp667
g323
aI10
aatp668
Rp669
ag312
((lp670
(lp671
g315
aF0.42789540982689017
aa(lp672
g317
aI18
aa(lp673
g319
aF0.22169166627303505
aa(lp674
g321
aI12
aa(lp675
g323
aI10
aatp676
Rp677
ag312
((lp678
(lp679
g315
aF0.9926179780543045
aa(lp680
g317
aI20
aa(lp681
g319
aF0.12088995980580641
aa(lp682
g321
aI12
aa(lp683
g323
aI9
aatp684
Rp685
ag312
((lp686
(lp687
g315
aF0.9926179780543045
aa(lp688
g317
aI20
aa(lp689
g319
aF0.12088995980580641
aa(lp690
g321
aI12
aa(lp691
g323
aI9
aatp692
Rp693
ag312
((lp694
(lp695
g315
aF0.42789540982689017
aa(lp696
g317
aI18
aa(lp697
g319
aF0.22169166627303505
aa(lp698
g321
aI12
aa(lp699
g323
aI10
aatp700
Rp701
ag312
((lp702
(lp703
g315
aF0.9926179780543045
aa(lp704
g317
aI12
aa(lp705
g319
aF0.12088995980580641
aa(lp706
g321
aI5
aa(lp707
g323
aI5
aatp708
Rp709
ag312
((lp710
(lp711
g315
aF0.9926179780543045
aa(lp712
g317
aI12
aa(lp713
g319
aF0.12088995980580641
aa(lp714
g321
aI5
aa(lp715
g323
aI5
aatp716
Rp717
ag312
((lp718
(lp719
g315
aF0.9926179780543045
aa(lp720
g317
aI12
aa(lp721
g319
aF0.12088995980580641
aa(lp722
g321
aI5
aa(lp723
g323
aI5
aatp724
Rp725
ag312
((lp726
(lp727
g315
aF0.9926179780543045
aa(lp728
g317
aI20
aa(lp729
g319
aF0.12088995980580641
aa(lp730
g321
aI12
aa(lp731
g323
aI9
aatp732
Rp733
ag312
((lp734
(lp735
g315
aF0.9926179780543045
aa(lp736
g317
aI16
aa(lp737
g319
aF0.12088995980580641
aa(lp738
g321
aI9
aa(lp739
g323
aI13
aatp740
Rp741
ag312
((lp742
(lp743
g315
aF0.9926179780543045
aa(lp744
g317
aI16
aa(lp745
g319
aF0.12088995980580641
aa(lp746
g321
aI9
aa(lp747
g323
aI13
aatp748
Rp749
ag312
((lp750
(lp751
g315
aF0.2407536057549969
aa(lp752
g317
aI6
aa(lp753
g319
aF0.2187810373376886
aa(lp754
g321
aI10
aa(lp755
g323
aI15
aatp756
Rp757
ag312
((lp758
(lp759
g315
aF0.42789540982689017
aa(lp760
g317
aI2
aa(lp761
g319
aF0.22169166627303505
aa(lp762
g321
aI9
aa(lp763
g323
aI25
aatp764
Rp765
ag312
((lp766
(lp767
g315
aF0.2407536057549969
aa(lp768
g317
aI6
aa(lp769
g319
aF0.2187810373376886
aa(lp770
g321
aI10
aa(lp771
g323
aI15
aatp772
Rp773
ag312
((lp774
(lp775
g315
aF0.9926179780543045
aa(lp776
g317
aI12
aa(lp777
g319
aF0.12088995980580641
aa(lp778
g321
aI5
aa(lp779
g323
aI5
aatp780
Rp781
ag312
((lp782
(lp783
g315
aF0.9926179780543045
aa(lp784
g317
aI20
aa(lp785
g319
aF0.12088995980580641
aa(lp786
g321
aI12
aa(lp787
g323
aI9
aatp788
Rp789
ag312
((lp790
(lp791
g315
aF0.42789540982689017
aa(lp792
g317
aI11
aa(lp793
g319
aF0.22169166627303505
aa(lp794
g321
aI12
aa(lp795
g323
aI2
aatp796
Rp797
ag312
((lp798
(lp799
g315
aF0.42789540982689017
aa(lp800
g317
aI11
aa(lp801
g319
aF0.22169166627303505
aa(lp802
g321
aI12
aa(lp803
g323
aI2
aatp804
Rp805
ag312
((lp806
(lp807
g315
aF0.9926179780543045
aa(lp808
g317
aI4
aa(lp809
g319
aF0.12088995980580641
aa(lp810
g321
aI15
aa(lp811
g323
aI9
aatp812
Rp813
ag312
((lp814
(lp815
g315
aF0.2407536057549969
aa(lp816
g317
aI6
aa(lp817
g319
aF0.2187810373376886
aa(lp818
g321
aI10
aa(lp819
g323
aI15
aatp820
Rp821
ag312
((lp822
(lp823
g315
aF0.9926179780543045
aa(lp824
g317
aI4
aa(lp825
g319
aF0.12088995980580641
aa(lp826
g321
aI15
aa(lp827
g323
aI9
aatp828
Rp829
ag312
((lp830
(lp831
g315
aF0.9926179780543045
aa(lp832
g317
aI20
aa(lp833
g319
aF0.12088995980580641
aa(lp834
g321
aI12
aa(lp835
g323
aI9
aatp836
Rp837
ag312
((lp838
(lp839
g315
aF0.9926179780543045
aa(lp840
g317
aI12
aa(lp841
g319
aF0.12088995980580641
aa(lp842
g321
aI5
aa(lp843
g323
aI5
aatp844
Rp845
ag312
((lp846
(lp847
g315
aF0.42789540982689017
aa(lp848
g317
aI14
aa(lp849
g319
aF0.22169166627303505
aa(lp850
g321
aI9
aa(lp851
g323
aI10
aatp852
Rp853
ag312
((lp854
(lp855
g315
aF0.9926179780543045
aa(lp856
g317
aI4
aa(lp857
g319
aF0.12088995980580641
aa(lp858
g321
aI15
aa(lp859
g323
aI9
aatp860
Rp861
ag312
((lp862
(lp863
g315
aF0.9926179780543045
aa(lp864
g317
aI16
aa(lp865
g319
aF0.12088995980580641
aa(lp866
g321
aI9
aa(lp867
g323
aI13
aatp868
Rp869
ag312
((lp870
(lp871
g315
aF0.9926179780543045
aa(lp872
g317
aI12
aa(lp873
g319
aF0.12088995980580641
aa(lp874
g321
aI5
aa(lp875
g323
aI5
aatp876
Rp877
ag312
((lp878
(lp879
g315
aF0.42789540982689017
aa(lp880
g317
aI2
aa(lp881
g319
aF0.22169166627303505
aa(lp882
g321
aI9
aa(lp883
g323
aI25
aatp884
Rp885
ag312
((lp886
(lp887
g315
aF0.42789540982689017
aa(lp888
g317
aI11
aa(lp889
g319
aF0.22169166627303505
aa(lp890
g321
aI12
aa(lp891
g323
aI2
aatp892
Rp893
ag312
((lp894
(lp895
g315
aF0.2407536057549969
aa(lp896
g317
aI6
aa(lp897
g319
aF0.2187810373376886
aa(lp898
g321
aI10
aa(lp899
g323
aI15
aatp900
Rp901
ag312
((lp902
(lp903
g315
aF0.9926179780543045
aa(lp904
g317
aI12
aa(lp905
g319
aF0.12088995980580641
aa(lp906
g321
aI5
aa(lp907
g323
aI5
aatp908
Rp909
ag312
((lp910
(lp911
g315
aF0.9926179780543045
aa(lp912
g317
aI20
aa(lp913
g319
aF0.12088995980580641
aa(lp914
g321
aI12
aa(lp915
g323
aI9
aatp916
Rp917
ag312
((lp918
(lp919
g315
aF0.42789540982689017
aa(lp920
g317
aI11
aa(lp921
g319
aF0.22169166627303505
aa(lp922
g321
aI12
aa(lp923
g323
aI2
aatp924
Rp925
ag312
((lp926
(lp927
g315
aF0.42789540982689017
aa(lp928
g317
aI2
aa(lp929
g319
aF0.22169166627303505
aa(lp930
g321
aI9
aa(lp931
g323
aI25
aatp932
Rp933
ag312
((lp934
(lp935
g315
aF0.9926179780543045
aa(lp936
g317
aI4
aa(lp937
g319
aF0.12088995980580641
aa(lp938
g321
aI15
aa(lp939
g323
aI9
aatp940
Rp941
ag312
((lp942
(lp943
g315
aF0.42789540982689017
aa(lp944
g317
aI11
aa(lp945
g319
aF0.22169166627303505
aa(lp946
g321
aI12
aa(lp947
g323
aI2
aatp948
Rp949
ag312
((lp950
(lp951
g315
aF0.9926179780543045
aa(lp952
g317
aI16
aa(lp953
g319
aF0.12088995980580641
aa(lp954
g321
aI9
aa(lp955
g323
aI13
aatp956
Rp957
ag312
((lp958
(lp959
g315
aF0.9926179780543045
aa(lp960
g317
aI16
aa(lp961
g319
aF0.12088995980580641
aa(lp962
g321
aI9
aa(lp963
g323
aI13
aatp964
Rp965
ag312
((lp966
(lp967
g315
aF0.9926179780543045
aa(lp968
g317
aI20
aa(lp969
g319
aF0.12088995980580641
aa(lp970
g321
aI12
aa(lp971
g323
aI9
aatp972
Rp973
ag312
((lp974
(lp975
g315
aF0.42789540982689017
aa(lp976
g317
aI18
aa(lp977
g319
aF0.22169166627303505
aa(lp978
g321
aI12
aa(lp979
g323
aI10
aatp980
Rp981
ag312
((lp982
(lp983
g315
aF0.9926179780543045
aa(lp984
g317
aI20
aa(lp985
g319
aF0.12088995980580641
aa(lp986
g321
aI12
aa(lp987
g323
aI9
aatp988
Rp989
ag312
((lp990
(lp991
g315
aF0.9926179780543045
aa(lp992
g317
aI20
aa(lp993
g319
aF0.12088995980580641
aa(lp994
g321
aI12
aa(lp995
g323
aI9
aatp996
Rp997
ag312
((lp998
(lp999
g315
aF0.9926179780543045
aa(lp1000
g317
aI16
aa(lp1001
g319
aF0.12088995980580641
aa(lp1002
g321
aI9
aa(lp1003
g323
aI13
aatp1004
Rp1005
ag312
((lp1006
(lp1007
g315
aF0.9926179780543045
aa(lp1008
g317
aI18
aa(lp1009
g319
aF0.12088995980580641
aa(lp1010
g321
aI7
aa(lp1011
g323
aI37
aatp1012
Rp1013
ag312
((lp1014
(lp1015
g315
aF0.9926179780543045
aa(lp1016
g317
aI20
aa(lp1017
g319
aF0.12088995980580641
aa(lp1018
g321
aI12
aa(lp1019
g323
aI9
aatp1020
Rp1021
ag312
((lp1022
(lp1023
g315
aF0.9926179780543045
aa(lp1024
g317
aI12
aa(lp1025
g319
aF0.12088995980580641
aa(lp1026
g321
aI5
aa(lp1027
g323
aI5
aatp1028
Rp1029
ag312
((lp1030
(lp1031
g315
aF0.42789540982689017
aa(lp1032
g317
aI2
aa(lp1033
g319
aF0.22169166627303505
aa(lp1034
g321
aI9
aa(lp1035
g323
aI25
aatp1036
Rp1037
ag312
((lp1038
(lp1039
g315
aF0.9926179780543045
aa(lp1040
g317
aI4
aa(lp1041
g319
aF0.12088995980580641
aa(lp1042
g321
aI15
aa(lp1043
g323
aI9
aatp1044
Rp1045
ag312
((lp1046
(lp1047
g315
aF0.42789540982689017
aa(lp1048
g317
aI17
aa(lp1049
g319
aF0.22169166627303505
aa(lp1050
g321
aI11
aa(lp1051
g323
aI12
aatp1052
Rp1053
ag312
((lp1054
(lp1055
g315
aF0.9926179780543045
aa(lp1056
g317
aI7
aa(lp1057
g319
aF0.12088995980580641
aa(lp1058
g321
aI12
aa(lp1059
g323
aI23
aatp1060
Rp1061
ag312
((lp1062
(lp1063
g315
aF0.9926179780543045
aa(lp1064
g317
aI7
aa(lp1065
g319
aF0.12088995980580641
aa(lp1066
g321
aI12
aa(lp1067
g323
aI23
aatp1068
Rp1069
ag312
((lp1070
(lp1071
g315
aF0.2407536057549969
aa(lp1072
g317
aI6
aa(lp1073
g319
aF0.2187810373376886
aa(lp1074
g321
aI10
aa(lp1075
g323
aI15
aatp1076
Rp1077
ag312
((lp1078
(lp1079
g315
aF0.9926179780543045
aa(lp1080
g317
aI4
aa(lp1081
g319
aF0.12088995980580641
aa(lp1082
g321
aI15
aa(lp1083
g323
aI9
aatp1084
Rp1085
ag312
((lp1086
(lp1087
g315
aF0.9926179780543045
aa(lp1088
g317
aI7
aa(lp1089
g319
aF0.12088995980580641
aa(lp1090
g321
aI12
aa(lp1091
g323
aI23
aatp1092
Rp1093
ag312
((lp1094
(lp1095
g315
aF0.9926179780543045
aa(lp1096
g317
aI20
aa(lp1097
g319
aF0.12088995980580641
aa(lp1098
g321
aI12
aa(lp1099
g323
aI9
aatp1100
Rp1101
ag312
((lp1102
(lp1103
g315
aF0.2407536057549969
aa(lp1104
g317
aI6
aa(lp1105
g319
aF0.2187810373376886
aa(lp1106
g321
aI10
aa(lp1107
g323
aI15
aatp1108
Rp1109
ag312
((lp1110
(lp1111
g315
aF0.9926179780543045
aa(lp1112
g317
aI16
aa(lp1113
g319
aF0.12088995980580641
aa(lp1114
g321
aI9
aa(lp1115
g323
aI13
aatp1116
Rp1117
aaF61.0220730304718
asS'run_rfclas'
p1118
(lp1119
(lp1120
g4
(g8
S'\xe1|\x0c\xce\xc7\xe0\xec?'
p1121
tp1122
Rp1123
ag4
(g8
S'E\xedJ\xd4\xaeD\xed?'
p1124
tp1125
Rp1126
ag4
(g8
S'E\xedJ\xd4\xaeD\xed?'
p1127
tp1128
Rp1129
ag4
(g8
S'\xa9]\x89\xda\x95\xa8\xed?'
p1130
tp1131
Rp1132
ag4
(g8
S'\xe1|\x0c\xce\xc7\xe0\xec?'
p1133
tp1134
Rp1135
ag4
(g8
S'\xedJ\xd4\xaeD\xed\xea?'
p1136
tp1137
Rp1138
ag4
(g8
S'\xcd\x0f\x8b\x94\x81\xa7\xeb?'
p1139
tp1140
Rp1141
ag4
(g8
S'k~X\xa4\x0c<\xed?'
p1142
tp1143
Rp1144
ag4
(g8
S'\x9a\x99\x99\x99\x99\x99\xed?'
p1145
tp1146
Rp1147
ag4
(g8
S'333333\xeb?'
p1148
tp1149
Rp1150
ag4
(g8
S'\xe1|\x0c\xce\xc7\xe0\xec?'
p1151
tp1152
Rp1153
ag4
(g8
S'\xb5+Q\xbb\x12\xb5\xeb?'
p1154
tp1155
Rp1156
ag4
(g8
S'\xe1|\x0c\xce\xc7\xe0\xec?'
p1157
tp1158
Rp1159
ag4
(g8
S'\xe1|\x0c\xce\xc7\xe0\xec?'
p1160
tp1161
Rp1162
ag4
(g8
S'E\xedJ\xd4\xaeD\xed?'
p1163
tp1164
Rp1165
ag4
(g8
S'%jW\xa2v%\xea?'
p1166
tp1167
Rp1168
ag4
(g8
S'&\xb4\x97\xd0^B\xeb?'
p1169
tp1170
Rp1171
ag4
(g8
S'\x13\xdaKh/\xa1\xed?'
p1172
tp1173
Rp1174
ag4
(g8
S'\x00\x00\x00\x00\x00\x00\xee?'
p1175
tp1176
Rp1177
ag4
(g8
S'gfffff\xee?'
p1178
tp1179
Rp1180
ag4
(g8
S'Q\xbb\x12\xb5+Q\xeb?'
p1181
tp1182
Rp1183
ag4
(g8
S'}\x0c\xce\xc7\xe0|\xec?'
p1184
tp1185
Rp1186
ag4
(g8
S'\x89\xda\x95\xa8]\x89\xea?'
p1187
tp1188
Rp1189
ag4
(g8
S'E\xedJ\xd4\xaeD\xed?'
p1190
tp1191
Rp1192
ag4
(g8
S'\xb5+Q\xbb\x12\xb5\xeb?'
p1193
tp1194
Rp1195
ag4
(g8
S'\xd4\xaeD\xedJ\xd4\xee?'
p1196
tp1197
Rp1198
ag4
(g8
S'\xba5?,R\x06\xee?'
p1199
tp1200
Rp1201
ag4
(g8
S'uk~X\xa4\x0c\xec?'
p1202
tp1203
Rp1204
ag4
(g8
S'\x00\x00\x00\x00\x00\x00\xee?'
p1205
tp1206
Rp1207
ag4
(g8
S'\xcd\xcc\xcc\xcc\xcc\xcc\xec?'
p1208
tp1209
Rp1210
ag4
(g8
S'\xa9]\x89\xda\x95\xa8\xed?'
p1211
tp1212
Rp1213
ag4
(g8
S'Q\xbb\x12\xb5+Q\xeb?'
p1214
tp1215
Rp1216
ag4
(g8
S'E\xedJ\xd4\xaeD\xed?'
p1217
tp1218
Rp1219
ag4
(g8
S'E\xedJ\xd4\xaeD\xed?'
p1220
tp1221
Rp1222
ag4
(g8
S'}\x0c\xce\xc7\xe0|\xec?'
p1223
tp1224
Rp1225
ag4
(g8
S'E\xedJ\xd4\xaeD\xed?'
p1226
tp1227
Rp1228
ag4
(g8
S'\xba5?,R\x06\xee?'
p1229
tp1230
Rp1231
ag4
(g8
S'\xc4"e\xe0\xe9\xd6\xec?'
p1232
tp1233
Rp1234
ag4
(g8
S'\x9a\x99\x99\x99\x99\x99\xeb?'
p1235
tp1236
Rp1237
ag4
(g8
S'333333\xeb?'
p1238
tp1239
Rp1240
ag4
(g8
S'\xe1|\x0c\xce\xc7\xe0\xec?'
p1241
tp1242
Rp1243
ag4
(g8
S'\xb5+Q\xbb\x12\xb5\xeb?'
p1244
tp1245
Rp1246
ag4
(g8
S'\x0c\xce\xc7\xe0|\x0c\xee?'
p1247
tp1248
Rp1249
ag4
(g8
S'}\x0c\xce\xc7\xe0|\xec?'
p1250
tp1251
Rp1252
ag4
(g8
S'\xedJ\xd4\xaeD\xed\xea?'
p1253
tp1254
Rp1255
ag4
(g8
S'\xb5+Q\xbb\x12\xb5\xeb?'
p1256
tp1257
Rp1258
ag4
(g8
S'\x13\xdaKh/\xa1\xed?'
p1259
tp1260
Rp1261
ag4
(g8
S'uk~X\xa4\x0c\xec?'
p1262
tp1263
Rp1264
ag4
(g8
S'333333\xed?'
p1265
tp1266
Rp1267
ag4
(g8
S'ffffff\xec?'
p1268
tp1269
Rp1270
ag4
(g8
S'}\x0c\xce\xc7\xe0|\xec?'
p1271
tp1272
Rp1273
ag4
(g8
S'}\x0c\xce\xc7\xe0|\xec?'
p1274
tp1275
Rp1276
ag4
(g8
S'\xe1|\x0c\xce\xc7\xe0\xec?'
p1277
tp1278
Rp1279
ag4
(g8
S'}\x0c\xce\xc7\xe0|\xec?'
p1280
tp1281
Rp1282
ag4
(g8
S'E\xedJ\xd4\xaeD\xed?'
p1283
tp1284
Rp1285
ag4
(g8
S'\xa9]\x89\xda\x95\xa8\xed?'
p1286
tp1287
Rp1288
ag4
(g8
S'\xd7\xfc\xb0H\x19x\xea?'
p1289
tp1290
Rp1291
ag4
(g8
S'\x1c\xc7q\x1c\xc7q\xec?'
p1292
tp1293
Rp1294
ag4
(g8
S'333333\xed?'
p1295
tp1296
Rp1297
ag4
(g8
S'333333\xed?'
p1298
tp1299
Rp1300
ag4
(g8
S'\xe1|\x0c\xce\xc7\xe0\xec?'
p1301
tp1302
Rp1303
ag4
(g8
S'}\x0c\xce\xc7\xe0|\xec?'
p1304
tp1305
Rp1306
ag4
(g8
S'Q\xbb\x12\xb5+Q\xeb?'
p1307
tp1308
Rp1309
ag4
(g8
S'E\xedJ\xd4\xaeD\xed?'
p1310
tp1311
Rp1312
ag4
(g8
S'8\x1f\x83\xf318\xef?'
p1313
tp1314
Rp1315
ag4
(g8
S'\xa9]\x89\xda\x95\xa8\xed?'
p1316
tp1317
Rp1318
ag4
(g8
S'\xba5?,R\x06\xee?'
p1319
tp1320
Rp1321
ag4
(g8
S'uk~X\xa4\x0c\xec?'
p1322
tp1323
Rp1324
ag4
(g8
S'\x00\x00\x00\x00\x00\x00\xee?'
p1325
tp1326
Rp1327
ag4
(g8
S'333333\xeb?'
p1328
tp1329
Rp1330
ag4
(g8
S'p>\x06\xe7cp\xee?'
p1331
tp1332
Rp1333
ag4
(g8
S'}\x0c\xce\xc7\xe0|\xec?'
p1334
tp1335
Rp1336
ag4
(g8
S'\xb5+Q\xbb\x12\xb5\xeb?'
p1337
tp1338
Rp1339
ag4
(g8
S'E\xedJ\xd4\xaeD\xed?'
p1340
tp1341
Rp1342
ag4
(g8
S'\xa9]\x89\xda\x95\xa8\xed?'
p1343
tp1344
Rp1345
ag4
(g8
S'\xe1|\x0c\xce\xc7\xe0\xec?'
p1346
tp1347
Rp1348
ag4
(g8
S'k~X\xa4\x0c<\xed?'
p1349
tp1350
Rp1351
ag4
(g8
S'uk~X\xa4\x0c\xec?'
p1352
tp1353
Rp1354
ag4
(g8
S'\xcd\xcc\xcc\xcc\xcc\xcc\xec?'
p1355
tp1356
Rp1357
ag4
(g8
S'\xcd\xcc\xcc\xcc\xcc\xcc\xec?'
p1358
tp1359
Rp1360
ag4
(g8
S'\x19\x9c\x8f\xc1\xf9\x18\xec?'
p1361
tp1362
Rp1363
ag4
(g8
S'\xa9]\x89\xda\x95\xa8\xed?'
p1364
tp1365
Rp1366
ag4
(g8
S'\xe1|\x0c\xce\xc7\xe0\xec?'
p1367
tp1368
Rp1369
ag4
(g8
S'\x19\x9c\x8f\xc1\xf9\x18\xec?'
p1370
tp1371
Rp1372
ag4
(g8
S'E\xedJ\xd4\xaeD\xed?'
p1373
tp1374
Rp1375
ag4
(g8
S'}\x0c\xce\xc7\xe0|\xec?'
p1376
tp1377
Rp1378
ag4
(g8
S'\xcd\x0f\x8b\x94\x81\xa7\xeb?'
p1379
tp1380
Rp1381
ag4
(g8
S'\x1c\xc7q\x1c\xc7q\xec?'
p1382
tp1383
Rp1384
ag4
(g8
S'\xce\xcc\xcc\xcc\xcc\xcc\xee?'
p1385
tp1386
Rp1387
ag4
(g8
S'333333\xed?'
p1388
tp1389
Rp1390
ag4
(g8
S'\xedJ\xd4\xaeD\xed\xea?'
p1391
tp1392
Rp1393
ag4
(g8
S'p>\x06\xe7cp\xee?'
p1394
tp1395
Rp1396
ag4
(g8
S'}\x0c\xce\xc7\xe0|\xec?'
p1397
tp1398
Rp1399
ag4
(g8
S'E\xedJ\xd4\xaeD\xed?'
p1400
tp1401
Rp1402
ag4
(g8
S'\x0c\xce\xc7\xe0|\x0c\xee?'
p1403
tp1404
Rp1405
ag4
(g8
S'\xe1|\x0c\xce\xc7\xe0\xec?'
p1406
tp1407
Rp1408
ag4
(g8
S'~X\xa4\x0c<\xdd\xea?'
p1409
tp1410
Rp1411
ag4
(g8
S'\xcd\x0f\x8b\x94\x81\xa7\xeb?'
p1412
tp1413
Rp1414
ag4
(g8
S'\x00\x00\x00\x00\x00\x00\xee?'
p1415
tp1416
Rp1417
ag4
(g8
S'\x9a\x99\x99\x99\x99\x99\xed?'
p1418
tp1419
Rp1420
aa(lp1421
g312
((lp1422
(lp1423
g315
aF0.7646572816333626
aa(lp1424
g317
aI4
aa(lp1425
S'max_leaf_nodes'
p1426
aI10
aa(lp1427
g323
aI5
aa(lp1428
g319
aF0.22876222127045265
aa(lp1429
S'n_estimators'
p1430
aI87
aatp1431
Rp1432
ag312
((lp1433
(lp1434
g315
aF0.2407536057549969
aa(lp1435
g317
aI14
aa(lp1436
g1426
aI23
aa(lp1437
g323
aI4
aa(lp1438
g319
aF0.28978161459048557
aa(lp1439
g1430
aI55
aatp1440
Rp1441
ag312
((lp1442
(lp1443
g315
aF0.7646572816333626
aa(lp1444
g317
aI18
aa(lp1445
g1426
aI46
aa(lp1446
g323
aI1
aa(lp1447
g319
aF0.22876222127045265
aa(lp1448
g1430
aI60
aatp1449
Rp1450
ag312
((lp1451
(lp1452
g315
aF0.7646572816333626
aa(lp1453
g317
aI18
aa(lp1454
g1426
aI46
aa(lp1455
g323
aI1
aa(lp1456
g319
aF0.22876222127045265
aa(lp1457
g1430
aI60
aatp1458
Rp1459
ag312
((lp1460
(lp1461
g315
aF0.7646572816333626
aa(lp1462
g317
aI3
aa(lp1463
g1426
aI29
aa(lp1464
g323
aI2
aa(lp1465
g319
aF0.22876222127045265
aa(lp1466
g1430
aI53
aatp1467
Rp1468
ag312
((lp1469
(lp1470
g315
aF0.2407536057549969
aa(lp1471
g317
aI18
aa(lp1472
g1426
aI29
aa(lp1473
g323
aI4
aa(lp1474
g319
aF0.28978161459048557
aa(lp1475
g1430
aI75
aatp1476
Rp1477
ag312
((lp1478
(lp1479
g315
aF0.7646572816333626
aa(lp1480
g317
aI4
aa(lp1481
g1426
aI10
aa(lp1482
g323
aI5
aa(lp1483
g319
aF0.22876222127045265
aa(lp1484
g1430
aI87
aatp1485
Rp1486
ag312
((lp1487
(lp1488
g315
aF0.7646572816333626
aa(lp1489
g317
aI18
aa(lp1490
g1426
aI46
aa(lp1491
g323
aI1
aa(lp1492
g319
aF0.22876222127045265
aa(lp1493
g1430
aI60
aatp1494
Rp1495
ag312
((lp1496
(lp1497
g315
aF0.7646572816333626
aa(lp1498
g317
aI4
aa(lp1499
g1426
aI10
aa(lp1500
g323
aI5
aa(lp1501
g319
aF0.22876222127045265
aa(lp1502
g1430
aI87
aatp1503
Rp1504
ag312
((lp1505
(lp1506
g315
aF0.7646572816333626
aa(lp1507
g317
aI2
aa(lp1508
g1426
aI34
aa(lp1509
g323
aI2
aa(lp1510
g319
aF0.22876222127045265
aa(lp1511
g1430
aI55
aatp1512
Rp1513
ag312
((lp1514
(lp1515
g315
aF0.7646572816333626
aa(lp1516
g317
aI4
aa(lp1517
g1426
aI10
aa(lp1518
g323
aI5
aa(lp1519
g319
aF0.22876222127045265
aa(lp1520
g1430
aI87
aatp1521
Rp1522
ag312
((lp1523
(lp1524
g315
aF0.7646572816333626
aa(lp1525
g317
aI18
aa(lp1526
g1426
aI46
aa(lp1527
g323
aI1
aa(lp1528
g319
aF0.22876222127045265
aa(lp1529
g1430
aI60
aatp1530
Rp1531
ag312
((lp1532
(lp1533
g315
aF0.7646572816333626
aa(lp1534
g317
aI18
aa(lp1535
g1426
aI46
aa(lp1536
g323
aI1
aa(lp1537
g319
aF0.22876222127045265
aa(lp1538
g1430
aI60
aatp1539
Rp1540
ag312
((lp1541
(lp1542
g315
aF0.7646572816333626
aa(lp1543
g317
aI2
aa(lp1544
g1426
aI23
aa(lp1545
g323
aI15
aa(lp1546
g319
aF0.22876222127045265
aa(lp1547
g1430
aI98
aatp1548
Rp1549
ag312
((lp1550
(lp1551
g315
aF0.7646572816333626
aa(lp1552
g317
aI4
aa(lp1553
g1426
aI10
aa(lp1554
g323
aI5
aa(lp1555
g319
aF0.22876222127045265
aa(lp1556
g1430
aI87
aatp1557
Rp1558
ag312
((lp1559
(lp1560
g315
aF0.2407536057549969
aa(lp1561
g317
aI6
aa(lp1562
g1426
aI12
aa(lp1563
g323
aI10
aa(lp1564
g319
aF0.28978161459048557
aa(lp1565
g1430
aI51
aatp1566
Rp1567
ag312
((lp1568
(lp1569
g315
aF0.7646572816333626
aa(lp1570
g317
aI4
aa(lp1571
g1426
aI10
aa(lp1572
g323
aI5
aa(lp1573
g319
aF0.22876222127045265
aa(lp1574
g1430
aI87
aatp1575
Rp1576
ag312
((lp1577
(lp1578
g315
aF0.7646572816333626
aa(lp1579
g317
aI18
aa(lp1580
g1426
aI46
aa(lp1581
g323
aI1
aa(lp1582
g319
aF0.22876222127045265
aa(lp1583
g1430
aI60
aatp1584
Rp1585
ag312
((lp1586
(lp1587
g315
aF0.7646572816333626
aa(lp1588
g317
aI18
aa(lp1589
g1426
aI46
aa(lp1590
g323
aI1
aa(lp1591
g319
aF0.22876222127045265
aa(lp1592
g1430
aI60
aatp1593
Rp1594
ag312
((lp1595
(lp1596
g315
aF0.7646572816333626
aa(lp1597
g317
aI18
aa(lp1598
g1426
aI46
aa(lp1599
g323
aI1
aa(lp1600
g319
aF0.22876222127045265
aa(lp1601
g1430
aI60
aatp1602
Rp1603
ag312
((lp1604
(lp1605
g315
aF0.7646572816333626
aa(lp1606
g317
aI3
aa(lp1607
g1426
aI29
aa(lp1608
g323
aI2
aa(lp1609
g319
aF0.22876222127045265
aa(lp1610
g1430
aI53
aatp1611
Rp1612
ag312
((lp1613
(lp1614
g315
aF0.7646572816333626
aa(lp1615
g317
aI18
aa(lp1616
g1426
aI46
aa(lp1617
g323
aI1
aa(lp1618
g319
aF0.22876222127045265
aa(lp1619
g1430
aI60
aatp1620
Rp1621
ag312
((lp1622
(lp1623
g315
aF0.2407536057549969
aa(lp1624
g317
aI18
aa(lp1625
g1426
aI29
aa(lp1626
g323
aI4
aa(lp1627
g319
aF0.28978161459048557
aa(lp1628
g1430
aI75
aatp1629
Rp1630
ag312
((lp1631
(lp1632
g315
aF0.7646572816333626
aa(lp1633
g317
aI2
aa(lp1634
g1426
aI23
aa(lp1635
g323
aI15
aa(lp1636
g319
aF0.22876222127045265
aa(lp1637
g1430
aI98
aatp1638
Rp1639
ag312
((lp1640
(lp1641
g315
aF0.7646572816333626
aa(lp1642
g317
aI3
aa(lp1643
g1426
aI29
aa(lp1644
g323
aI2
aa(lp1645
g319
aF0.22876222127045265
aa(lp1646
g1430
aI53
aatp1647
Rp1648
ag312
((lp1649
(lp1650
g315
aF0.7646572816333626
aa(lp1651
g317
aI18
aa(lp1652
g1426
aI46
aa(lp1653
g323
aI1
aa(lp1654
g319
aF0.22876222127045265
aa(lp1655
g1430
aI60
aatp1656
Rp1657
ag312
((lp1658
(lp1659
g315
aF0.7646572816333626
aa(lp1660
g317
aI18
aa(lp1661
g1426
aI46
aa(lp1662
g323
aI1
aa(lp1663
g319
aF0.22876222127045265
aa(lp1664
g1430
aI60
aatp1665
Rp1666
ag312
((lp1667
(lp1668
g315
aF0.7646572816333626
aa(lp1669
g317
aI18
aa(lp1670
g1426
aI46
aa(lp1671
g323
aI1
aa(lp1672
g319
aF0.22876222127045265
aa(lp1673
g1430
aI60
aatp1674
Rp1675
ag312
((lp1676
(lp1677
g315
aF0.7646572816333626
aa(lp1678
g317
aI4
aa(lp1679
g1426
aI10
aa(lp1680
g323
aI5
aa(lp1681
g319
aF0.22876222127045265
aa(lp1682
g1430
aI87
aatp1683
Rp1684
ag312
((lp1685
(lp1686
g315
aF0.7646572816333626
aa(lp1687
g317
aI4
aa(lp1688
g1426
aI10
aa(lp1689
g323
aI5
aa(lp1690
g319
aF0.22876222127045265
aa(lp1691
g1430
aI87
aatp1692
Rp1693
ag312
((lp1694
(lp1695
g315
aF0.7646572816333626
aa(lp1696
g317
aI2
aa(lp1697
g1426
aI34
aa(lp1698
g323
aI2
aa(lp1699
g319
aF0.22876222127045265
aa(lp1700
g1430
aI55
aatp1701
Rp1702
ag312
((lp1703
(lp1704
g315
aF0.7646572816333626
aa(lp1705
g317
aI4
aa(lp1706
g1426
aI10
aa(lp1707
g323
aI5
aa(lp1708
g319
aF0.22876222127045265
aa(lp1709
g1430
aI87
aatp1710
Rp1711
ag312
((lp1712
(lp1713
g315
aF0.7646572816333626
aa(lp1714
g317
aI18
aa(lp1715
g1426
aI46
aa(lp1716
g323
aI1
aa(lp1717
g319
aF0.22876222127045265
aa(lp1718
g1430
aI60
aatp1719
Rp1720
ag312
((lp1721
(lp1722
g315
aF0.7646572816333626
aa(lp1723
g317
aI18
aa(lp1724
g1426
aI46
aa(lp1725
g323
aI1
aa(lp1726
g319
aF0.22876222127045265
aa(lp1727
g1430
aI60
aatp1728
Rp1729
ag312
((lp1730
(lp1731
g315
aF0.7646572816333626
aa(lp1732
g317
aI18
aa(lp1733
g1426
aI46
aa(lp1734
g323
aI1
aa(lp1735
g319
aF0.22876222127045265
aa(lp1736
g1430
aI60
aatp1737
Rp1738
ag312
((lp1739
(lp1740
g315
aF0.7646572816333626
aa(lp1741
g317
aI2
aa(lp1742
g1426
aI34
aa(lp1743
g323
aI2
aa(lp1744
g319
aF0.22876222127045265
aa(lp1745
g1430
aI55
aatp1746
Rp1747
ag312
((lp1748
(lp1749
g315
aF0.7646572816333626
aa(lp1750
g317
aI3
aa(lp1751
g1426
aI29
aa(lp1752
g323
aI2
aa(lp1753
g319
aF0.22876222127045265
aa(lp1754
g1430
aI53
aatp1755
Rp1756
ag312
((lp1757
(lp1758
g315
aF0.2407536057549969
aa(lp1759
g317
aI19
aa(lp1760
g1426
aI16
aa(lp1761
g323
aI6
aa(lp1762
g319
aF0.28978161459048557
aa(lp1763
g1430
aI74
aatp1764
Rp1765
ag312
((lp1766
(lp1767
g315
aF0.7646572816333626
aa(lp1768
g317
aI18
aa(lp1769
g1426
aI9
aa(lp1770
g323
aI11
aa(lp1771
g319
aF0.22876222127045265
aa(lp1772
g1430
aI90
aatp1773
Rp1774
ag312
((lp1775
(lp1776
g315
aF0.2407536057549969
aa(lp1777
g317
aI20
aa(lp1778
g1426
aI42
aa(lp1779
g323
aI7
aa(lp1780
g319
aF0.28978161459048557
aa(lp1781
g1430
aI55
aatp1782
Rp1783
ag312
((lp1784
(lp1785
g315
aF0.7646572816333626
aa(lp1786
g317
aI4
aa(lp1787
g1426
aI10
aa(lp1788
g323
aI5
aa(lp1789
g319
aF0.22876222127045265
aa(lp1790
g1430
aI87
aatp1791
Rp1792
ag312
((lp1793
(lp1794
g315
aF0.7646572816333626
aa(lp1795
g317
aI18
aa(lp1796
g1426
aI46
aa(lp1797
g323
aI1
aa(lp1798
g319
aF0.22876222127045265
aa(lp1799
g1430
aI60
aatp1800
Rp1801
ag312
((lp1802
(lp1803
g315
aF0.7646572816333626
aa(lp1804
g317
aI18
aa(lp1805
g1426
aI46
aa(lp1806
g323
aI1
aa(lp1807
g319
aF0.22876222127045265
aa(lp1808
g1430
aI60
aatp1809
Rp1810
ag312
((lp1811
(lp1812
g315
aF0.7646572816333626
aa(lp1813
g317
aI3
aa(lp1814
g1426
aI29
aa(lp1815
g323
aI2
aa(lp1816
g319
aF0.22876222127045265
aa(lp1817
g1430
aI53
aatp1818
Rp1819
ag312
((lp1820
(lp1821
g315
aF0.7646572816333626
aa(lp1822
g317
aI18
aa(lp1823
g1426
aI46
aa(lp1824
g323
aI1
aa(lp1825
g319
aF0.22876222127045265
aa(lp1826
g1430
aI60
aatp1827
Rp1828
ag312
((lp1829
(lp1830
g315
aF0.7646572816333626
aa(lp1831
g317
aI2
aa(lp1832
g1426
aI34
aa(lp1833
g323
aI2
aa(lp1834
g319
aF0.22876222127045265
aa(lp1835
g1430
aI55
aatp1836
Rp1837
ag312
((lp1838
(lp1839
g315
aF0.7646572816333626
aa(lp1840
g317
aI18
aa(lp1841
g1426
aI46
aa(lp1842
g323
aI1
aa(lp1843
g319
aF0.22876222127045265
aa(lp1844
g1430
aI60
aatp1845
Rp1846
ag312
((lp1847
(lp1848
g315
aF0.7646572816333626
aa(lp1849
g317
aI2
aa(lp1850
g1426
aI34
aa(lp1851
g323
aI2
aa(lp1852
g319
aF0.22876222127045265
aa(lp1853
g1430
aI55
aatp1854
Rp1855
ag312
((lp1856
(lp1857
g315
aF0.7646572816333626
aa(lp1858
g317
aI18
aa(lp1859
g1426
aI46
aa(lp1860
g323
aI1
aa(lp1861
g319
aF0.22876222127045265
aa(lp1862
g1430
aI60
aatp1863
Rp1864
ag312
((lp1865
(lp1866
g315
aF0.7646572816333626
aa(lp1867
g317
aI4
aa(lp1868
g1426
aI10
aa(lp1869
g323
aI5
aa(lp1870
g319
aF0.22876222127045265
aa(lp1871
g1430
aI87
aatp1872
Rp1873
ag312
((lp1874
(lp1875
g315
aF0.7646572816333626
aa(lp1876
g317
aI3
aa(lp1877
g1426
aI29
aa(lp1878
g323
aI2
aa(lp1879
g319
aF0.22876222127045265
aa(lp1880
g1430
aI53
aatp1881
Rp1882
ag312
((lp1883
(lp1884
g315
aF0.7646572816333626
aa(lp1885
g317
aI3
aa(lp1886
g1426
aI29
aa(lp1887
g323
aI2
aa(lp1888
g319
aF0.22876222127045265
aa(lp1889
g1430
aI53
aatp1890
Rp1891
ag312
((lp1892
(lp1893
g315
aF0.7646572816333626
aa(lp1894
g317
aI2
aa(lp1895
g1426
aI23
aa(lp1896
g323
aI15
aa(lp1897
g319
aF0.22876222127045265
aa(lp1898
g1430
aI98
aatp1899
Rp1900
ag312
((lp1901
(lp1902
g315
aF0.7646572816333626
aa(lp1903
g317
aI4
aa(lp1904
g1426
aI10
aa(lp1905
g323
aI5
aa(lp1906
g319
aF0.22876222127045265
aa(lp1907
g1430
aI87
aatp1908
Rp1909
ag312
((lp1910
(lp1911
g315
aF0.7646572816333626
aa(lp1912
g317
aI3
aa(lp1913
g1426
aI29
aa(lp1914
g323
aI2
aa(lp1915
g319
aF0.22876222127045265
aa(lp1916
g1430
aI53
aatp1917
Rp1918
ag312
((lp1919
(lp1920
g315
aF0.7646572816333626
aa(lp1921
g317
aI18
aa(lp1922
g1426
aI46
aa(lp1923
g323
aI1
aa(lp1924
g319
aF0.22876222127045265
aa(lp1925
g1430
aI60
aatp1926
Rp1927
ag312
((lp1928
(lp1929
g315
aF0.2407536057549969
aa(lp1930
g317
aI18
aa(lp1931
g1426
aI29
aa(lp1932
g323
aI4
aa(lp1933
g319
aF0.28978161459048557
aa(lp1934
g1430
aI75
aatp1935
Rp1936
ag312
((lp1937
(lp1938
g315
aF0.7646572816333626
aa(lp1939
g317
aI18
aa(lp1940
g1426
aI46
aa(lp1941
g323
aI1
aa(lp1942
g319
aF0.22876222127045265
aa(lp1943
g1430
aI60
aatp1944
Rp1945
ag312
((lp1946
(lp1947
g315
aF0.7646572816333626
aa(lp1948
g317
aI18
aa(lp1949
g1426
aI46
aa(lp1950
g323
aI1
aa(lp1951
g319
aF0.22876222127045265
aa(lp1952
g1430
aI60
aatp1953
Rp1954
ag312
((lp1955
(lp1956
g315
aF0.7646572816333626
aa(lp1957
g317
aI3
aa(lp1958
g1426
aI29
aa(lp1959
g323
aI2
aa(lp1960
g319
aF0.22876222127045265
aa(lp1961
g1430
aI53
aatp1962
Rp1963
ag312
((lp1964
(lp1965
g315
aF0.7646572816333626
aa(lp1966
g317
aI12
aa(lp1967
g1426
aI17
aa(lp1968
g323
aI5
aa(lp1969
g319
aF0.22876222127045265
aa(lp1970
g1430
aI54
aatp1971
Rp1972
ag312
((lp1973
(lp1974
g315
aF0.7646572816333626
aa(lp1975
g317
aI2
aa(lp1976
g1426
aI23
aa(lp1977
g323
aI15
aa(lp1978
g319
aF0.22876222127045265
aa(lp1979
g1430
aI98
aatp1980
Rp1981
ag312
((lp1982
(lp1983
g315
aF0.7646572816333626
aa(lp1984
g317
aI3
aa(lp1985
g1426
aI29
aa(lp1986
g323
aI2
aa(lp1987
g319
aF0.22876222127045265
aa(lp1988
g1430
aI53
aatp1989
Rp1990
ag312
((lp1991
(lp1992
g315
aF0.7646572816333626
aa(lp1993
g317
aI18
aa(lp1994
g1426
aI9
aa(lp1995
g323
aI11
aa(lp1996
g319
aF0.22876222127045265
aa(lp1997
g1430
aI90
aatp1998
Rp1999
ag312
((lp2000
(lp2001
g315
aF0.7646572816333626
aa(lp2002
g317
aI3
aa(lp2003
g1426
aI29
aa(lp2004
g323
aI2
aa(lp2005
g319
aF0.22876222127045265
aa(lp2006
g1430
aI53
aatp2007
Rp2008
ag312
((lp2009
(lp2010
g315
aF0.7646572816333626
aa(lp2011
g317
aI3
aa(lp2012
g1426
aI29
aa(lp2013
g323
aI2
aa(lp2014
g319
aF0.22876222127045265
aa(lp2015
g1430
aI53
aatp2016
Rp2017
ag312
((lp2018
(lp2019
g315
aF0.7646572816333626
aa(lp2020
g317
aI4
aa(lp2021
g1426
aI10
aa(lp2022
g323
aI5
aa(lp2023
g319
aF0.22876222127045265
aa(lp2024
g1430
aI87
aatp2025
Rp2026
ag312
((lp2027
(lp2028
g315
aF0.7646572816333626
aa(lp2029
g317
aI4
aa(lp2030
g1426
aI10
aa(lp2031
g323
aI5
aa(lp2032
g319
aF0.22876222127045265
aa(lp2033
g1430
aI87
aatp2034
Rp2035
ag312
((lp2036
(lp2037
g315
aF0.7646572816333626
aa(lp2038
g317
aI3
aa(lp2039
g1426
aI29
aa(lp2040
g323
aI2
aa(lp2041
g319
aF0.22876222127045265
aa(lp2042
g1430
aI53
aatp2043
Rp2044
ag312
((lp2045
(lp2046
g315
aF0.2407536057549969
aa(lp2047
g317
aI18
aa(lp2048
g1426
aI29
aa(lp2049
g323
aI4
aa(lp2050
g319
aF0.28978161459048557
aa(lp2051
g1430
aI75
aatp2052
Rp2053
ag312
((lp2054
(lp2055
g315
aF0.7646572816333626
aa(lp2056
g317
aI3
aa(lp2057
g1426
aI29
aa(lp2058
g323
aI2
aa(lp2059
g319
aF0.22876222127045265
aa(lp2060
g1430
aI53
aatp2061
Rp2062
ag312
((lp2063
(lp2064
g315
aF0.7646572816333626
aa(lp2065
g317
aI4
aa(lp2066
g1426
aI10
aa(lp2067
g323
aI5
aa(lp2068
g319
aF0.22876222127045265
aa(lp2069
g1430
aI87
aatp2070
Rp2071
ag312
((lp2072
(lp2073
g315
aF0.2407536057549969
aa(lp2074
g317
aI4
aa(lp2075
g1426
aI46
aa(lp2076
g323
aI1
aa(lp2077
g319
aF0.28978161459048557
aa(lp2078
g1430
aI66
aatp2079
Rp2080
ag312
((lp2081
(lp2082
g315
aF0.7646572816333626
aa(lp2083
g317
aI4
aa(lp2084
g1426
aI10
aa(lp2085
g323
aI5
aa(lp2086
g319
aF0.22876222127045265
aa(lp2087
g1430
aI87
aatp2088
Rp2089
ag312
((lp2090
(lp2091
g315
aF0.7646572816333626
aa(lp2092
g317
aI18
aa(lp2093
g1426
aI46
aa(lp2094
g323
aI1
aa(lp2095
g319
aF0.22876222127045265
aa(lp2096
g1430
aI60
aatp2097
Rp2098
ag312
((lp2099
(lp2100
g315
aF0.7646572816333626
aa(lp2101
g317
aI4
aa(lp2102
g1426
aI10
aa(lp2103
g323
aI5
aa(lp2104
g319
aF0.22876222127045265
aa(lp2105
g1430
aI87
aatp2106
Rp2107
ag312
((lp2108
(lp2109
g315
aF0.7646572816333626
aa(lp2110
g317
aI3
aa(lp2111
g1426
aI29
aa(lp2112
g323
aI2
aa(lp2113
g319
aF0.22876222127045265
aa(lp2114
g1430
aI53
aatp2115
Rp2116
ag312
((lp2117
(lp2118
g315
aF0.7646572816333626
aa(lp2119
g317
aI18
aa(lp2120
g1426
aI46
aa(lp2121
g323
aI1
aa(lp2122
g319
aF0.22876222127045265
aa(lp2123
g1430
aI60
aatp2124
Rp2125
ag312
((lp2126
(lp2127
g315
aF0.7646572816333626
aa(lp2128
g317
aI4
aa(lp2129
g1426
aI10
aa(lp2130
g323
aI5
aa(lp2131
g319
aF0.22876222127045265
aa(lp2132
g1430
aI87
aatp2133
Rp2134
ag312
((lp2135
(lp2136
g315
aF0.7646572816333626
aa(lp2137
g317
aI18
aa(lp2138
g1426
aI46
aa(lp2139
g323
aI1
aa(lp2140
g319
aF0.22876222127045265
aa(lp2141
g1430
aI60
aatp2142
Rp2143
ag312
((lp2144
(lp2145
g315
aF0.7646572816333626
aa(lp2146
g317
aI2
aa(lp2147
g1426
aI23
aa(lp2148
g323
aI15
aa(lp2149
g319
aF0.22876222127045265
aa(lp2150
g1430
aI98
aatp2151
Rp2152
ag312
((lp2153
(lp2154
g315
aF0.7646572816333626
aa(lp2155
g317
aI18
aa(lp2156
g1426
aI46
aa(lp2157
g323
aI1
aa(lp2158
g319
aF0.22876222127045265
aa(lp2159
g1430
aI60
aatp2160
Rp2161
ag312
((lp2162
(lp2163
g315
aF0.7646572816333626
aa(lp2164
g317
aI18
aa(lp2165
g1426
aI9
aa(lp2166
g323
aI11
aa(lp2167
g319
aF0.22876222127045265
aa(lp2168
g1430
aI90
aatp2169
Rp2170
ag312
((lp2171
(lp2172
g315
aF0.7646572816333626
aa(lp2173
g317
aI18
aa(lp2174
g1426
aI46
aa(lp2175
g323
aI1
aa(lp2176
g319
aF0.22876222127045265
aa(lp2177
g1430
aI60
aatp2178
Rp2179
ag312
((lp2180
(lp2181
g315
aF0.7646572816333626
aa(lp2182
g317
aI2
aa(lp2183
g1426
aI23
aa(lp2184
g323
aI15
aa(lp2185
g319
aF0.22876222127045265
aa(lp2186
g1430
aI98
aatp2187
Rp2188
ag312
((lp2189
(lp2190
g315
aF0.7646572816333626
aa(lp2191
g317
aI18
aa(lp2192
g1426
aI46
aa(lp2193
g323
aI1
aa(lp2194
g319
aF0.22876222127045265
aa(lp2195
g1430
aI60
aatp2196
Rp2197
ag312
((lp2198
(lp2199
g315
aF0.7646572816333626
aa(lp2200
g317
aI4
aa(lp2201
g1426
aI10
aa(lp2202
g323
aI5
aa(lp2203
g319
aF0.22876222127045265
aa(lp2204
g1430
aI87
aatp2205
Rp2206
ag312
((lp2207
(lp2208
g315
aF0.7646572816333626
aa(lp2209
g317
aI3
aa(lp2210
g1426
aI29
aa(lp2211
g323
aI2
aa(lp2212
g319
aF0.22876222127045265
aa(lp2213
g1430
aI53
aatp2214
Rp2215
ag312
((lp2216
(lp2217
g315
aF0.7646572816333626
aa(lp2218
g317
aI4
aa(lp2219
g1426
aI10
aa(lp2220
g323
aI5
aa(lp2221
g319
aF0.22876222127045265
aa(lp2222
g1430
aI87
aatp2223
Rp2224
ag312
((lp2225
(lp2226
g315
aF0.7646572816333626
aa(lp2227
g317
aI18
aa(lp2228
g1426
aI46
aa(lp2229
g323
aI1
aa(lp2230
g319
aF0.22876222127045265
aa(lp2231
g1430
aI60
aatp2232
Rp2233
ag312
((lp2234
(lp2235
g315
aF0.7646572816333626
aa(lp2236
g317
aI18
aa(lp2237
g1426
aI46
aa(lp2238
g323
aI1
aa(lp2239
g319
aF0.22876222127045265
aa(lp2240
g1430
aI60
aatp2241
Rp2242
ag312
((lp2243
(lp2244
g315
aF0.7646572816333626
aa(lp2245
g317
aI18
aa(lp2246
g1426
aI46
aa(lp2247
g323
aI1
aa(lp2248
g319
aF0.22876222127045265
aa(lp2249
g1430
aI60
aatp2250
Rp2251
ag312
((lp2252
(lp2253
g315
aF0.7646572816333626
aa(lp2254
g317
aI3
aa(lp2255
g1426
aI29
aa(lp2256
g323
aI2
aa(lp2257
g319
aF0.22876222127045265
aa(lp2258
g1430
aI53
aatp2259
Rp2260
ag312
((lp2261
(lp2262
g315
aF0.7646572816333626
aa(lp2263
g317
aI18
aa(lp2264
g1426
aI46
aa(lp2265
g323
aI1
aa(lp2266
g319
aF0.22876222127045265
aa(lp2267
g1430
aI60
aatp2268
Rp2269
ag312
((lp2270
(lp2271
g315
aF0.7646572816333626
aa(lp2272
g317
aI2
aa(lp2273
g1426
aI23
aa(lp2274
g323
aI15
aa(lp2275
g319
aF0.22876222127045265
aa(lp2276
g1430
aI98
aatp2277
Rp2278
ag312
((lp2279
(lp2280
g315
aF0.7646572816333626
aa(lp2281
g317
aI3
aa(lp2282
g1426
aI29
aa(lp2283
g323
aI2
aa(lp2284
g319
aF0.22876222127045265
aa(lp2285
g1430
aI53
aatp2286
Rp2287
ag312
((lp2288
(lp2289
g315
aF0.2407536057549969
aa(lp2290
g317
aI9
aa(lp2291
g1426
aI23
aa(lp2292
g323
aI11
aa(lp2293
g319
aF0.28978161459048557
aa(lp2294
g1430
aI89
aatp2295
Rp2296
ag312
((lp2297
(lp2298
g315
aF0.2407536057549969
aa(lp2299
g317
aI4
aa(lp2300
g1426
aI46
aa(lp2301
g323
aI1
aa(lp2302
g319
aF0.28978161459048557
aa(lp2303
g1430
aI66
aatp2304
Rp2305
ag312
((lp2306
(lp2307
g315
aF0.7646572816333626
aa(lp2308
g317
aI4
aa(lp2309
g1426
aI10
aa(lp2310
g323
aI5
aa(lp2311
g319
aF0.22876222127045265
aa(lp2312
g1430
aI87
aatp2313
Rp2314
ag312
((lp2315
(lp2316
g315
aF0.7646572816333626
aa(lp2317
g317
aI18
aa(lp2318
g1426
aI46
aa(lp2319
g323
aI1
aa(lp2320
g319
aF0.22876222127045265
aa(lp2321
g1430
aI60
aatp2322
Rp2323
aaF2612.829612970352
asS'run_svmclas'
p2324
(lp2325
(lp2326
g4
(g8
S'p>\x06\xe7cp\xee?'
p2327
tp2328
Rp2329
ag4
(g8
S'8\x1f\x83\xf318\xef?'
p2330
tp2331
Rp2332
ag4
(g8
S'\xe1|\x0c\xce\xc7\xe0\xec?'
p2333
tp2334
Rp2335
ag4
(g8
S'\xd4\xaeD\xedJ\xd4\xee?'
p2336
tp2337
Rp2338
ag4
(g8
S'\xa9]\x89\xda\x95\xa8\xed?'
p2339
tp2340
Rp2341
ag4
(g8
S'\x0c\xce\xc7\xe0|\x0c\xee?'
p2342
tp2343
Rp2344
ag4
(g8
S'\t\xed%\xb4\x97\xd0\xee?'
p2345
tp2346
Rp2347
ag4
(g8
S'X\xa4\x0c<\xdd\x9a\xef?'
p2348
tp2349
Rp2350
ag4
(g8
S'333333\xed?'
p2351
tp2352
Rp2353
ag4
(g8
S'333333\xef?'
p2354
tp2355
Rp2356
ag4
(g8
S'\xa9]\x89\xda\x95\xa8\xed?'
p2357
tp2358
Rp2359
ag4
(g8
S'\xd4\xaeD\xedJ\xd4\xee?'
p2360
tp2361
Rp2362
ag4
(g8
S'\x0c\xce\xc7\xe0|\x0c\xee?'
p2363
tp2364
Rp2365
ag4
(g8
S'p>\x06\xe7cp\xee?'
p2366
tp2367
Rp2368
ag4
(g8
S'\xd4\xaeD\xedJ\xd4\xee?'
p2369
tp2370
Rp2371
ag4
(g8
S'\x0c\xce\xc7\xe0|\x0c\xee?'
p2372
tp2373
Rp2374
ag4
(g8
S'\xb1H\x19x\xba5\xef?'
p2375
tp2376
Rp2377
ag4
(g8
S'\x13\xdaKh/\xa1\xed?'
p2378
tp2379
Rp2380
ag4
(g8
S'gfffff\xee?'
p2381
tp2382
Rp2383
ag4
(g8
S'\x00\x00\x00\x00\x00\x00\xf0?'
p2384
tp2385
Rp2386
ag4
(g8
S'8\x1f\x83\xf318\xef?'
p2387
tp2388
Rp2389
ag4
(g8
S'p>\x06\xe7cp\xee?'
p2390
tp2391
Rp2392
ag4
(g8
S'\xd4\xaeD\xedJ\xd4\xee?'
p2393
tp2394
Rp2395
ag4
(g8
S'p>\x06\xe7cp\xee?'
p2396
tp2397
Rp2398
ag4
(g8
S'\x0c\xce\xc7\xe0|\x0c\xee?'
p2399
tp2400
Rp2401
ag4
(g8
S'p>\x06\xe7cp\xee?'
p2402
tp2403
Rp2404
ag4
(g8
S'\xba5?,R\x06\xee?'
p2405
tp2406
Rp2407
ag4
(g8
S'k~X\xa4\x0c<\xed?'
p2408
tp2409
Rp2410
ag4
(g8
S'gfffff\xee?'
p2411
tp2412
Rp2413
ag4
(g8
S'\x9a\x99\x99\x99\x99\x99\xed?'
p2414
tp2415
Rp2416
ag4
(g8
S'p>\x06\xe7cp\xee?'
p2417
tp2418
Rp2419
ag4
(g8
S'p>\x06\xe7cp\xee?'
p2420
tp2421
Rp2422
ag4
(g8
S'\xd4\xaeD\xedJ\xd4\xee?'
p2423
tp2424
Rp2425
ag4
(g8
S'\x19\x9c\x8f\xc1\xf9\x18\xec?'
p2426
tp2427
Rp2428
ag4
(g8
S'p>\x06\xe7cp\xee?'
p2429
tp2430
Rp2431
ag4
(g8
S'\x0c\xce\xc7\xe0|\x0c\xee?'
p2432
tp2433
Rp2434
ag4
(g8
S'\xc4"e\xe0\xe9\xd6\xec?'
p2435
tp2436
Rp2437
ag4
(g8
S'\xb1H\x19x\xba5\xef?'
p2438
tp2439
Rp2440
ag4
(g8
S'333333\xef?'
p2441
tp2442
Rp2443
ag4
(g8
S'333333\xef?'
p2444
tp2445
Rp2446
ag4
(g8
S'8\x1f\x83\xf318\xef?'
p2447
tp2448
Rp2449
ag4
(g8
S'p>\x06\xe7cp\xee?'
p2450
tp2451
Rp2452
ag4
(g8
S'p>\x06\xe7cp\xee?'
p2453
tp2454
Rp2455
ag4
(g8
S'\x0c\xce\xc7\xe0|\x0c\xee?'
p2456
tp2457
Rp2458
ag4
(g8
S'p>\x06\xe7cp\xee?'
p2459
tp2460
Rp2461
ag4
(g8
S'\x0c\xce\xc7\xe0|\x0c\xee?'
p2462
tp2463
Rp2464
ag4
(g8
S'\x13\xdaKh/\xa1\xed?'
p2465
tp2466
Rp2467
ag4
(g8
S'b\x912\xf0tk\xee?'
p2468
tp2469
Rp2470
ag4
(g8
S'333333\xed?'
p2471
tp2472
Rp2473
ag4
(g8
S'\x00\x00\x00\x00\x00\x00\xee?'
p2474
tp2475
Rp2476
ag4
(g8
S'E\xedJ\xd4\xaeD\xed?'
p2477
tp2478
Rp2479
ag4
(g8
S'\x0c\xce\xc7\xe0|\x0c\xee?'
p2480
tp2481
Rp2482
ag4
(g8
S'\xd4\xaeD\xedJ\xd4\xee?'
p2483
tp2484
Rp2485
ag4
(g8
S'\xd4\xaeD\xedJ\xd4\xee?'
p2486
tp2487
Rp2488
ag4
(g8
S'p>\x06\xe7cp\xee?'
p2489
tp2490
Rp2491
ag4
(g8
S'}\x0c\xce\xc7\xe0|\xec?'
p2492
tp2493
Rp2494
ag4
(g8
S'\t\xed%\xb4\x97\xd0\xee?'
p2495
tp2496
Rp2497
ag4
(g8
S'b\x912\xf0tk\xee?'
p2498
tp2499
Rp2500
ag4
(g8
S'gfffff\xee?'
p2501
tp2502
Rp2503
ag4
(g8
S'\x00\x00\x00\x00\x00\x00\xee?'
p2504
tp2505
Rp2506
ag4
(g8
S'\xd4\xaeD\xedJ\xd4\xee?'
p2507
tp2508
Rp2509
ag4
(g8
S'\xa9]\x89\xda\x95\xa8\xed?'
p2510
tp2511
Rp2512
ag4
(g8
S'p>\x06\xe7cp\xee?'
p2513
tp2514
Rp2515
ag4
(g8
S'\x0c\xce\xc7\xe0|\x0c\xee?'
p2516
tp2517
Rp2518
ag4
(g8
S'\x0c\xce\xc7\xe0|\x0c\xee?'
p2519
tp2520
Rp2521
ag4
(g8
S'\xa9]\x89\xda\x95\xa8\xed?'
p2522
tp2523
Rp2524
ag4
(g8
S'\t\xed%\xb4\x97\xd0\xee?'
p2525
tp2526
Rp2527
ag4
(g8
S'\t\xed%\xb4\x97\xd0\xee?'
p2528
tp2529
Rp2530
ag4
(g8
S'333333\xed?'
p2531
tp2532
Rp2533
ag4
(g8
S'\xce\xcc\xcc\xcc\xcc\xcc\xee?'
p2534
tp2535
Rp2536
ag4
(g8
S'p>\x06\xe7cp\xee?'
p2537
tp2538
Rp2539
ag4
(g8
S'8\x1f\x83\xf318\xef?'
p2540
tp2541
Rp2542
ag4
(g8
S'\x0c\xce\xc7\xe0|\x0c\xee?'
p2543
tp2544
Rp2545
ag4
(g8
S'p>\x06\xe7cp\xee?'
p2546
tp2547
Rp2548
ag4
(g8
S'p>\x06\xe7cp\xee?'
p2549
tp2550
Rp2551
ag4
(g8
S'\xd4\xaeD\xedJ\xd4\xee?'
p2552
tp2553
Rp2554
ag4
(g8
S'\xba5?,R\x06\xee?'
p2555
tp2556
Rp2557
ag4
(g8
S'\xb1H\x19x\xba5\xef?'
p2558
tp2559
Rp2560
ag4
(g8
S'gfffff\xee?'
p2561
tp2562
Rp2563
ag4
(g8
S'333333\xed?'
p2564
tp2565
Rp2566
ag4
(g8
S'}\x0c\xce\xc7\xe0|\xec?'
p2567
tp2568
Rp2569
ag4
(g8
S'\x0c\xce\xc7\xe0|\x0c\xee?'
p2570
tp2571
Rp2572
ag4
(g8
S'p>\x06\xe7cp\xee?'
p2573
tp2574
Rp2575
ag4
(g8
S'\xd4\xaeD\xedJ\xd4\xee?'
p2576
tp2577
Rp2578
ag4
(g8
S'\x00\x00\x00\x00\x00\x00\xf0?'
p2579
tp2580
Rp2581
ag4
(g8
S'E\xedJ\xd4\xaeD\xed?'
p2582
tp2583
Rp2584
ag4
(g8
S'\x13\xdaKh/\xa1\xed?'
p2585
tp2586
Rp2587
ag4
(g8
S'b\x912\xf0tk\xee?'
p2588
tp2589
Rp2590
ag4
(g8
S'gfffff\xee?'
p2591
tp2592
Rp2593
ag4
(g8
S'\xce\xcc\xcc\xcc\xcc\xcc\xee?'
p2594
tp2595
Rp2596
ag4
(g8
S'\xa9]\x89\xda\x95\xa8\xed?'
p2597
tp2598
Rp2599
ag4
(g8
S'\x9c\x8f\xc1\xf9\x18\x9c\xef?'
p2600
tp2601
Rp2602
ag4
(g8
S'p>\x06\xe7cp\xee?'
p2603
tp2604
Rp2605
ag4
(g8
S'\xa9]\x89\xda\x95\xa8\xed?'
p2606
tp2607
Rp2608
ag4
(g8
S'\xe1|\x0c\xce\xc7\xe0\xec?'
p2609
tp2610
Rp2611
ag4
(g8
S'\xd4\xaeD\xedJ\xd4\xee?'
p2612
tp2613
Rp2614
ag4
(g8
S'\t\xed%\xb4\x97\xd0\xee?'
p2615
tp2616
Rp2617
ag4
(g8
S'b\x912\xf0tk\xee?'
p2618
tp2619
Rp2620
ag4
(g8
S'gfffff\xee?'
p2621
tp2622
Rp2623
ag4
(g8
S'\x9a\x99\x99\x99\x99\x99\xed?'
p2624
tp2625
Rp2626
aa(lp2627
g312
((lp2628
(lp2629
S'C'
p2630
aF90.15260301538721
aa(lp2631
S'kernel'
p2632
aS'rbf'
p2633
aa(lp2634
S'degree'
p2635
aI5
aatp2636
Rp2637
ag312
((lp2638
(lp2639
g2630
aF54.18710603207031
aa(lp2640
g2632
ag2633
aa(lp2641
g2635
aI2
aatp2642
Rp2643
ag312
((lp2644
(lp2645
g2630
aF90.15260301538721
aa(lp2646
g2632
ag2633
aa(lp2647
g2635
aI5
aatp2648
Rp2649
ag312
((lp2650
(lp2651
g2630
aF90.15260301538721
aa(lp2652
g2632
ag2633
aa(lp2653
g2635
aI5
aatp2654
Rp2655
ag312
((lp2656
(lp2657
g2630
aF90.15260301538721
aa(lp2658
g2632
ag2633
aa(lp2659
g2635
aI5
aatp2660
Rp2661
ag312
((lp2662
(lp2663
g2630
aF54.18710603207031
aa(lp2664
g2632
ag2633
aa(lp2665
g2635
aI2
aatp2666
Rp2667
ag312
((lp2668
(lp2669
g2630
aF90.15260301538721
aa(lp2670
g2632
ag2633
aa(lp2671
g2635
aI5
aatp2672
Rp2673
ag312
((lp2674
(lp2675
g2630
aF90.15260301538721
aa(lp2676
g2632
ag2633
aa(lp2677
g2635
aI20
aatp2678
Rp2679
ag312
((lp2680
(lp2681
g2630
aF54.18710603207031
aa(lp2682
g2632
ag2633
aa(lp2683
g2635
aI2
aatp2684
Rp2685
ag312
((lp2686
(lp2687
g2630
aF25.58139567136823
aa(lp2688
g2632
ag2633
aa(lp2689
g2635
aI11
aatp2690
Rp2691
ag312
((lp2692
(lp2693
g2630
aF90.15260301538721
aa(lp2694
g2632
ag2633
aa(lp2695
g2635
aI5
aatp2696
Rp2697
ag312
((lp2698
(lp2699
g2630
aF13.522987986828882
aa(lp2700
g2632
aS'poly'
p2701
aa(lp2702
g2635
aI4
aatp2703
Rp2704
ag312
((lp2705
(lp2706
g2630
aF90.15260301538721
aa(lp2707
g2632
ag2701
aa(lp2708
g2635
aI4
aatp2709
Rp2710
ag312
((lp2711
(lp2712
g2630
aF54.18710603207031
aa(lp2713
g2632
ag2633
aa(lp2714
g2635
aI2
aatp2715
Rp2716
ag312
((lp2717
(lp2718
g2630
aF90.15260301538721
aa(lp2719
g2632
ag2633
aa(lp2720
g2635
aI5
aatp2721
Rp2722
ag312
((lp2723
(lp2724
g2630
aF90.15260301538721
aa(lp2725
g2632
ag2633
aa(lp2726
g2635
aI5
aatp2727
Rp2728
ag312
((lp2729
(lp2730
g2630
aF54.18710603207031
aa(lp2731
g2632
ag2633
aa(lp2732
g2635
aI2
aatp2733
Rp2734
ag312
((lp2735
(lp2736
g2630
aF90.15260301538721
aa(lp2737
g2632
aS'linear'
p2738
aa(lp2739
g2635
aI4
aatp2740
Rp2741
ag312
((lp2742
(lp2743
g2630
aF90.15260301538721
aa(lp2744
g2632
ag2738
aa(lp2745
g2635
aI4
aatp2746
Rp2747
ag312
((lp2748
(lp2749
g2630
aF90.15260301538721
aa(lp2750
g2632
ag2633
aa(lp2751
g2635
aI5
aatp2752
Rp2753
ag312
((lp2754
(lp2755
g2630
aF54.18710603207031
aa(lp2756
g2632
ag2633
aa(lp2757
g2635
aI2
aatp2758
Rp2759
ag312
((lp2760
(lp2761
g2630
aF90.15260301538721
aa(lp2762
g2632
ag2633
aa(lp2763
g2635
aI20
aatp2764
Rp2765
ag312
((lp2766
(lp2767
g2630
aF90.15260301538721
aa(lp2768
g2632
ag2633
aa(lp2769
g2635
aI5
aatp2770
Rp2771
ag312
((lp2772
(lp2773
g2630
aF54.18710603207031
aa(lp2774
g2632
ag2633
aa(lp2775
g2635
aI2
aatp2776
Rp2777
ag312
((lp2778
(lp2779
g2630
aF54.18710603207031
aa(lp2780
g2632
ag2633
aa(lp2781
g2635
aI2
aatp2782
Rp2783
ag312
((lp2784
(lp2785
g2630
aF72.18184923084418
aa(lp2786
g2632
ag2633
aa(lp2787
g2635
aI2
aatp2788
Rp2789
ag312
((lp2790
(lp2791
g2630
aF65.19413797500401
aa(lp2792
g2632
ag2633
aa(lp2793
g2635
aI5
aatp2794
Rp2795
ag312
((lp2796
(lp2797
g2630
aF90.15260301538721
aa(lp2798
g2632
ag2738
aa(lp2799
g2635
aI4
aatp2800
Rp2801
ag312
((lp2802
(lp2803
g2630
aF90.15260301538721
aa(lp2804
g2632
ag2701
aa(lp2805
g2635
aI4
aatp2806
Rp2807
ag312
((lp2808
(lp2809
g2630
aF90.15260301538721
aa(lp2810
g2632
ag2701
aa(lp2811
g2635
aI4
aatp2812
Rp2813
ag312
((lp2814
(lp2815
g2630
aF90.15260301538721
aa(lp2816
g2632
ag2701
aa(lp2817
g2635
aI4
aatp2818
Rp2819
ag312
((lp2820
(lp2821
g2630
aF90.15260301538721
aa(lp2822
g2632
ag2633
aa(lp2823
g2635
aI5
aatp2824
Rp2825
ag312
((lp2826
(lp2827
g2630
aF90.15260301538721
aa(lp2828
g2632
ag2701
aa(lp2829
g2635
aI4
aatp2830
Rp2831
ag312
((lp2832
(lp2833
g2630
aF21.738279773348278
aa(lp2834
g2632
ag2701
aa(lp2835
g2635
aI1
aatp2836
Rp2837
ag312
((lp2838
(lp2839
g2630
aF90.15260301538721
aa(lp2840
g2632
ag2633
aa(lp2841
g2635
aI5
aatp2842
Rp2843
ag312
((lp2844
(lp2845
g2630
aF90.15260301538721
aa(lp2846
g2632
ag2701
aa(lp2847
g2635
aI4
aatp2848
Rp2849
ag312
((lp2850
(lp2851
g2630
aF13.522987986828882
aa(lp2852
g2632
ag2738
aa(lp2853
g2635
aI6
aatp2854
Rp2855
ag312
((lp2856
(lp2857
g2630
aF90.15260301538721
aa(lp2858
g2632
ag2633
aa(lp2859
g2635
aI5
aatp2860
Rp2861
ag312
((lp2862
(lp2863
g2630
aF54.18710603207031
aa(lp2864
g2632
ag2633
aa(lp2865
g2635
aI2
aatp2866
Rp2867
ag312
((lp2868
(lp2869
g2630
aF90.15260301538721
aa(lp2870
g2632
ag2701
aa(lp2871
g2635
aI4
aatp2872
Rp2873
ag312
((lp2874
(lp2875
g2630
aF54.18710603207031
aa(lp2876
g2632
ag2633
aa(lp2877
g2635
aI2
aatp2878
Rp2879
ag312
((lp2880
(lp2881
g2630
aF90.15260301538721
aa(lp2882
g2632
ag2633
aa(lp2883
g2635
aI5
aatp2884
Rp2885
ag312
((lp2886
(lp2887
g2630
aF90.15260301538721
aa(lp2888
g2632
ag2633
aa(lp2889
g2635
aI5
aatp2890
Rp2891
ag312
((lp2892
(lp2893
g2630
aF13.522987986828882
aa(lp2894
g2632
ag2633
aa(lp2895
g2635
aI2
aatp2896
Rp2897
ag312
((lp2898
(lp2899
g2630
aF90.15260301538721
aa(lp2900
g2632
ag2701
aa(lp2901
g2635
aI4
aatp2902
Rp2903
ag312
((lp2904
(lp2905
g2630
aF13.522987986828882
aa(lp2906
g2632
ag2738
aa(lp2907
g2635
aI6
aatp2908
Rp2909
ag312
((lp2910
(lp2911
g2630
aF54.18710603207031
aa(lp2912
g2632
ag2633
aa(lp2913
g2635
aI2
aatp2914
Rp2915
ag312
((lp2916
(lp2917
g2630
aF54.18710603207031
aa(lp2918
g2632
ag2633
aa(lp2919
g2635
aI2
aatp2920
Rp2921
ag312
((lp2922
(lp2923
g2630
aF54.18710603207031
aa(lp2924
g2632
ag2633
aa(lp2925
g2635
aI2
aatp2926
Rp2927
ag312
((lp2928
(lp2929
g2630
aF90.15260301538721
aa(lp2930
g2632
ag2701
aa(lp2931
g2635
aI4
aatp2932
Rp2933
ag312
((lp2934
(lp2935
g2630
aF90.15260301538721
aa(lp2936
g2632
ag2633
aa(lp2937
g2635
aI20
aatp2938
Rp2939
ag312
((lp2940
(lp2941
g2630
aF90.15260301538721
aa(lp2942
g2632
ag2633
aa(lp2943
g2635
aI5
aatp2944
Rp2945
ag312
((lp2946
(lp2947
g2630
aF13.522987986828882
aa(lp2948
g2632
ag2633
aa(lp2949
g2635
aI2
aatp2950
Rp2951
ag312
((lp2952
(lp2953
g2630
aF90.15260301538721
aa(lp2954
g2632
ag2633
aa(lp2955
g2635
aI5
aatp2956
Rp2957
ag312
((lp2958
(lp2959
g2630
aF54.18710603207031
aa(lp2960
g2632
ag2633
aa(lp2961
g2635
aI2
aatp2962
Rp2963
ag312
((lp2964
(lp2965
g2630
aF90.15260301538721
aa(lp2966
g2632
ag2738
aa(lp2967
g2635
aI4
aatp2968
Rp2969
ag312
((lp2970
(lp2971
g2630
aF90.15260301538721
aa(lp2972
g2632
ag2633
aa(lp2973
g2635
aI5
aatp2974
Rp2975
ag312
((lp2976
(lp2977
g2630
aF90.15260301538721
aa(lp2978
g2632
ag2701
aa(lp2979
g2635
aI4
aatp2980
Rp2981
ag312
((lp2982
(lp2983
g2630
aF65.19413797500401
aa(lp2984
g2632
ag2633
aa(lp2985
g2635
aI5
aatp2986
Rp2987
ag312
((lp2988
(lp2989
g2630
aF90.15260301538721
aa(lp2990
g2632
ag2633
aa(lp2991
g2635
aI5
aatp2992
Rp2993
ag312
((lp2994
(lp2995
g2630
aF90.15260301538721
aa(lp2996
g2632
ag2633
aa(lp2997
g2635
aI5
aatp2998
Rp2999
ag312
((lp3000
(lp3001
g2630
aF72.18184923084418
aa(lp3002
g2632
ag2738
aa(lp3003
g2635
aI6
aatp3004
Rp3005
ag312
((lp3006
(lp3007
g2630
aF13.522987986828882
aa(lp3008
g2632
ag2633
aa(lp3009
g2635
aI2
aatp3010
Rp3011
ag312
((lp3012
(lp3013
g2630
aF76.2517802375484
aa(lp3014
g2632
ag2633
aa(lp3015
g2635
aI2
aatp3016
Rp3017
ag312
((lp3018
(lp3019
g2630
aF54.18710603207031
aa(lp3020
g2632
ag2633
aa(lp3021
g2635
aI2
aatp3022
Rp3023
ag312
((lp3024
(lp3025
g2630
aF13.522987986828882
aa(lp3026
g2632
ag2633
aa(lp3027
g2635
aI2
aatp3028
Rp3029
ag312
((lp3030
(lp3031
g2630
aF54.18710603207031
aa(lp3032
g2632
ag2633
aa(lp3033
g2635
aI2
aatp3034
Rp3035
ag312
((lp3036
(lp3037
g2630
aF90.15260301538721
aa(lp3038
g2632
ag2633
aa(lp3039
g2635
aI5
aatp3040
Rp3041
ag312
((lp3042
(lp3043
g2630
aF72.18184923084418
aa(lp3044
g2632
ag2633
aa(lp3045
g2635
aI2
aatp3046
Rp3047
ag312
((lp3048
(lp3049
g2630
aF54.18710603207031
aa(lp3050
g2632
ag2633
aa(lp3051
g2635
aI2
aatp3052
Rp3053
ag312
((lp3054
(lp3055
g2630
aF72.18184923084418
aa(lp3056
g2632
ag2633
aa(lp3057
g2635
aI2
aatp3058
Rp3059
ag312
((lp3060
(lp3061
g2630
aF90.15260301538721
aa(lp3062
g2632
ag2701
aa(lp3063
g2635
aI4
aatp3064
Rp3065
ag312
((lp3066
(lp3067
g2630
aF13.522987986828882
aa(lp3068
g2632
ag2633
aa(lp3069
g2635
aI2
aatp3070
Rp3071
ag312
((lp3072
(lp3073
g2630
aF90.15260301538721
aa(lp3074
g2632
ag2633
aa(lp3075
g2635
aI5
aatp3076
Rp3077
ag312
((lp3078
(lp3079
g2630
aF90.15260301538721
aa(lp3080
g2632
ag2701
aa(lp3081
g2635
aI4
aatp3082
Rp3083
ag312
((lp3084
(lp3085
g2630
aF90.15260301538721
aa(lp3086
g2632
ag2633
aa(lp3087
g2635
aI5
aatp3088
Rp3089
ag312
((lp3090
(lp3091
g2630
aF72.18184923084418
aa(lp3092
g2632
ag2633
aa(lp3093
g2635
aI2
aatp3094
Rp3095
ag312
((lp3096
(lp3097
g2630
aF90.15260301538721
aa(lp3098
g2632
ag2701
aa(lp3099
g2635
aI4
aatp3100
Rp3101
ag312
((lp3102
(lp3103
g2630
aF90.15260301538721
aa(lp3104
g2632
ag2701
aa(lp3105
g2635
aI4
aatp3106
Rp3107
ag312
((lp3108
(lp3109
g2630
aF90.15260301538721
aa(lp3110
g2632
ag2701
aa(lp3111
g2635
aI4
aatp3112
Rp3113
ag312
((lp3114
(lp3115
g2630
aF54.18710603207031
aa(lp3116
g2632
ag2633
aa(lp3117
g2635
aI2
aatp3118
Rp3119
ag312
((lp3120
(lp3121
g2630
aF90.15260301538721
aa(lp3122
g2632
ag2633
aa(lp3123
g2635
aI5
aatp3124
Rp3125
ag312
((lp3126
(lp3127
g2630
aF54.18710603207031
aa(lp3128
g2632
ag2633
aa(lp3129
g2635
aI2
aatp3130
Rp3131
ag312
((lp3132
(lp3133
g2630
aF72.18184923084418
aa(lp3134
g2632
ag2633
aa(lp3135
g2635
aI2
aatp3136
Rp3137
ag312
((lp3138
(lp3139
g2630
aF90.15260301538721
aa(lp3140
g2632
ag2701
aa(lp3141
g2635
aI4
aatp3142
Rp3143
ag312
((lp3144
(lp3145
g2630
aF90.15260301538721
aa(lp3146
g2632
ag2738
aa(lp3147
g2635
aI4
aatp3148
Rp3149
ag312
((lp3150
(lp3151
g2630
aF90.15260301538721
aa(lp3152
g2632
ag2633
aa(lp3153
g2635
aI5
aatp3154
Rp3155
ag312
((lp3156
(lp3157
g2630
aF90.15260301538721
aa(lp3158
g2632
ag2701
aa(lp3159
g2635
aI4
aatp3160
Rp3161
ag312
((lp3162
(lp3163
g2630
aF90.15260301538721
aa(lp3164
g2632
ag2633
aa(lp3165
g2635
aI5
aatp3166
Rp3167
ag312
((lp3168
(lp3169
g2630
aF90.15260301538721
aa(lp3170
g2632
ag2701
aa(lp3171
g2635
aI4
aatp3172
Rp3173
ag312
((lp3174
(lp3175
g2630
aF90.15260301538721
aa(lp3176
g2632
ag2633
aa(lp3177
g2635
aI5
aatp3178
Rp3179
ag312
((lp3180
(lp3181
g2630
aF90.15260301538721
aa(lp3182
g2632
ag2633
aa(lp3183
g2635
aI5
aatp3184
Rp3185
ag312
((lp3186
(lp3187
g2630
aF90.15260301538721
aa(lp3188
g2632
ag2701
aa(lp3189
g2635
aI4
aatp3190
Rp3191
ag312
((lp3192
(lp3193
g2630
aF54.18710603207031
aa(lp3194
g2632
ag2633
aa(lp3195
g2635
aI2
aatp3196
Rp3197
ag312
((lp3198
(lp3199
g2630
aF90.15260301538721
aa(lp3200
g2632
ag2701
aa(lp3201
g2635
aI4
aatp3202
Rp3203
ag312
((lp3204
(lp3205
g2630
aF90.15260301538721
aa(lp3206
g2632
ag2701
aa(lp3207
g2635
aI4
aatp3208
Rp3209
ag312
((lp3210
(lp3211
g2630
aF65.19413797500401
aa(lp3212
g2632
ag2633
aa(lp3213
g2635
aI5
aatp3214
Rp3215
ag312
((lp3216
(lp3217
g2630
aF72.18184923084418
aa(lp3218
g2632
ag2633
aa(lp3219
g2635
aI2
aatp3220
Rp3221
ag312
((lp3222
(lp3223
g2630
aF54.18710603207031
aa(lp3224
g2632
ag2633
aa(lp3225
g2635
aI2
aatp3226
Rp3227
ag312
((lp3228
(lp3229
g2630
aF90.15260301538721
aa(lp3230
g2632
ag2633
aa(lp3231
g2635
aI5
aatp3232
Rp3233
aaF1006.0230269432068
as.